ARM GAS  C:\Users\Sam\AppData\Local\Temp\ccJjUaFv.s 			page 1


   1              		.cpu cortex-m0
   2              		.fpu softvfp
   3              		.eabi_attribute 20, 1
   4              		.eabi_attribute 21, 1
   5              		.eabi_attribute 23, 3
   6              		.eabi_attribute 24, 1
   7              		.eabi_attribute 25, 1
   8              		.eabi_attribute 26, 1
   9              		.eabi_attribute 30, 6
  10              		.eabi_attribute 34, 0
  11              		.eabi_attribute 18, 4
  12              		.code	16
  13              		.file	"hmc5883l.c"
  14              		.text
  15              	.Ltext0:
  16              		.cfi_sections	.debug_frame
  17              		.comm	devAddr,1,1
  18              		.comm	buffer,6,4
  19              		.comm	mode,1,1
  20              		.section	.text.HMC5883L_Init,"ax",%progbits
  21              		.align	2
  22              		.global	HMC5883L_Init
  23              		.code	16
  24              		.thumb_func
  25              		.type	HMC5883L_Init, %function
  26              	HMC5883L_Init:
  27              	.LFB33:
  28              		.file 1 ".\\hmc5883l.c"
   1:.\hmc5883l.c  **** // I2Cdev library collection - HMC5883L I2C device class
   2:.\hmc5883l.c  **** // Based on Honeywell HMC5883L datasheet, 10/2010 (Form #900405 Rev B)
   3:.\hmc5883l.c  **** // 6/12/2012 by Jeff Rowberg <jeff@rowberg.net>
   4:.\hmc5883l.c  **** // Updates should (hopefully) always be available at https://github.com/jrowberg/i2cdevlib
   5:.\hmc5883l.c  **** //
   6:.\hmc5883l.c  **** // Changelog:
   7:.\hmc5883l.c  **** //     2012-06-12 - fixed swapped Y/Z axes
   8:.\hmc5883l.c  **** //     2011-08-22 - small Doxygen comment fixes
   9:.\hmc5883l.c  **** //     2011-07-31 - initial release
  10:.\hmc5883l.c  **** 
  11:.\hmc5883l.c  **** /* ============================================
  12:.\hmc5883l.c  **** I2Cdev device library code is placed under the MIT license
  13:.\hmc5883l.c  **** Copyright (c) 2012 Jeff Rowberg
  14:.\hmc5883l.c  **** 
  15:.\hmc5883l.c  **** Permission is hereby granted, free of charge, to any person obtaining a copy
  16:.\hmc5883l.c  **** of this software and associated documentation files (the "Software"), to deal
  17:.\hmc5883l.c  **** in the Software without restriction, including without limitation the rights
  18:.\hmc5883l.c  **** to use, copy, modify, merge, publish, distribute, sublicense, and/or sell
  19:.\hmc5883l.c  **** copies of the Software, and to permit persons to whom the Software is
  20:.\hmc5883l.c  **** furnished to do so, subject to the following conditions:
  21:.\hmc5883l.c  **** 
  22:.\hmc5883l.c  **** The above copyright notice and this permission notice shall be included in
  23:.\hmc5883l.c  **** all copies or substantial portions of the Software.
  24:.\hmc5883l.c  **** 
  25:.\hmc5883l.c  **** THE SOFTWARE IS PROVIDED "AS IS", WITHOUT WARRANTY OF ANY KIND, EXPRESS OR
  26:.\hmc5883l.c  **** IMPLIED, INCLUDING BUT NOT LIMITED TO THE WARRANTIES OF MERCHANTABILITY,
  27:.\hmc5883l.c  **** FITNESS FOR A PARTICULAR PURPOSE AND NONINFRINGEMENT. IN NO EVENT SHALL THE
  28:.\hmc5883l.c  **** AUTHORS OR COPYRIGHT HOLDERS BE LIABLE FOR ANY CLAIM, DAMAGES OR OTHER
  29:.\hmc5883l.c  **** LIABILITY, WHETHER IN AN ACTION OF CONTRACT, TORT OR OTHERWISE, ARISING FROM,
ARM GAS  C:\Users\Sam\AppData\Local\Temp\ccJjUaFv.s 			page 2


  30:.\hmc5883l.c  **** OUT OF OR IN CONNECTION WITH THE SOFTWARE OR THE USE OR OTHER DEALINGS IN
  31:.\hmc5883l.c  **** THE SOFTWARE.
  32:.\hmc5883l.c  **** ===============================================
  33:.\hmc5883l.c  **** */
  34:.\hmc5883l.c  **** #include <project.h>
  35:.\hmc5883l.c  **** #include "hmc5883l.h"
  36:.\hmc5883l.c  **** #include "i2cfunctions.h"
  37:.\hmc5883l.c  **** 
  38:.\hmc5883l.c  **** 
  39:.\hmc5883l.c  **** /** Default constructor, uses default I2C address.
  40:.\hmc5883l.c  ****  * @see HMC5883L_DEFAULT_ADDRESS
  41:.\hmc5883l.c  ****  */
  42:.\hmc5883l.c  **** void HMC5883L_Init(void) {
  29              		.loc 1 42 0
  30              		.cfi_startproc
  31 0000 80B5     		push	{r7, lr}
  32              		.cfi_def_cfa_offset 8
  33              		.cfi_offset 7, -8
  34              		.cfi_offset 14, -4
  35 0002 00AF     		add	r7, sp, #0
  36              		.cfi_def_cfa_register 7
  43:.\hmc5883l.c  ****     devAddr = HMC5883L_DEFAULT_ADDRESS;
  37              		.loc 1 43 0
  38 0004 024B     		ldr	r3, .L2
  39 0006 1E22     		mov	r2, #30
  40 0008 1A70     		strb	r2, [r3]
  44:.\hmc5883l.c  **** }
  41              		.loc 1 44 0
  42 000a BD46     		mov	sp, r7
  43              		@ sp needed
  44 000c 80BD     		pop	{r7, pc}
  45              	.L3:
  46 000e C046     		.align	2
  47              	.L2:
  48 0010 00000000 		.word	devAddr
  49              		.cfi_endproc
  50              	.LFE33:
  51              		.size	HMC5883L_Init, .-HMC5883L_Init
  52              		.section	.text.HMC5883L_SetCustomAddress,"ax",%progbits
  53              		.align	2
  54              		.global	HMC5883L_SetCustomAddress
  55              		.code	16
  56              		.thumb_func
  57              		.type	HMC5883L_SetCustomAddress, %function
  58              	HMC5883L_SetCustomAddress:
  59              	.LFB34:
  45:.\hmc5883l.c  **** 
  46:.\hmc5883l.c  **** /** Specific address constructor.
  47:.\hmc5883l.c  ****  * @param address I2C address
  48:.\hmc5883l.c  ****  * @see HMC5883L_DEFAULT_ADDRESS
  49:.\hmc5883l.c  ****  * @see HMC5883L_ADDRESS
  50:.\hmc5883l.c  ****  */
  51:.\hmc5883l.c  **** void HMC5883L_SetCustomAddress(uint8_t address) {
  60              		.loc 1 51 0
  61              		.cfi_startproc
  62 0000 80B5     		push	{r7, lr}
  63              		.cfi_def_cfa_offset 8
ARM GAS  C:\Users\Sam\AppData\Local\Temp\ccJjUaFv.s 			page 3


  64              		.cfi_offset 7, -8
  65              		.cfi_offset 14, -4
  66 0002 82B0     		sub	sp, sp, #8
  67              		.cfi_def_cfa_offset 16
  68 0004 00AF     		add	r7, sp, #0
  69              		.cfi_def_cfa_register 7
  70 0006 021C     		mov	r2, r0
  71 0008 FB1D     		add	r3, r7, #7
  72 000a 1A70     		strb	r2, [r3]
  52:.\hmc5883l.c  ****     devAddr = address;
  73              		.loc 1 52 0
  74 000c 034B     		ldr	r3, .L5
  75 000e FA1D     		add	r2, r7, #7
  76 0010 1278     		ldrb	r2, [r2]
  77 0012 1A70     		strb	r2, [r3]
  53:.\hmc5883l.c  **** }
  78              		.loc 1 53 0
  79 0014 BD46     		mov	sp, r7
  80 0016 02B0     		add	sp, sp, #8
  81              		@ sp needed
  82 0018 80BD     		pop	{r7, pc}
  83              	.L6:
  84 001a C046     		.align	2
  85              	.L5:
  86 001c 00000000 		.word	devAddr
  87              		.cfi_endproc
  88              	.LFE34:
  89              		.size	HMC5883L_SetCustomAddress, .-HMC5883L_SetCustomAddress
  90              		.section	.text.HMC5883L_initialize,"ax",%progbits
  91              		.align	2
  92              		.global	HMC5883L_initialize
  93              		.code	16
  94              		.thumb_func
  95              		.type	HMC5883L_initialize, %function
  96              	HMC5883L_initialize:
  97              	.LFB35:
  54:.\hmc5883l.c  **** 
  55:.\hmc5883l.c  **** /** Power on and prepare for general usage.
  56:.\hmc5883l.c  ****  * This will prepare the magnetometer with default settings, ready for single-
  57:.\hmc5883l.c  ****  * use mode (very low power requirements). Default settings include 8-sample
  58:.\hmc5883l.c  ****  * averaging, 15 Hz data output rate, normal measurement bias, a,d 1090 gain (in
  59:.\hmc5883l.c  ****  * terms of LSB/Gauss). Be sure to adjust any settings you need specifically
  60:.\hmc5883l.c  ****  * after initialization, especially the gain settings if you happen to be seeing
  61:.\hmc5883l.c  ****  * a lot of -4096 values (see the datasheet for mor information).
  62:.\hmc5883l.c  ****  */
  63:.\hmc5883l.c  **** void HMC5883L_initialize() {
  98              		.loc 1 63 0
  99              		.cfi_startproc
 100 0000 80B5     		push	{r7, lr}
 101              		.cfi_def_cfa_offset 8
 102              		.cfi_offset 7, -8
 103              		.cfi_offset 14, -4
 104 0002 00AF     		add	r7, sp, #0
 105              		.cfi_def_cfa_register 7
  64:.\hmc5883l.c  ****     // write CONFIG_A register
  65:.\hmc5883l.c  ****      I2CWriteByte(devAddr, HMC5883L_RA_CONFIG_A,
 106              		.loc 1 65 0
ARM GAS  C:\Users\Sam\AppData\Local\Temp\ccJjUaFv.s 			page 4


 107 0004 074B     		ldr	r3, .L8
 108 0006 1B78     		ldrb	r3, [r3]
 109 0008 181C     		mov	r0, r3
 110 000a 0021     		mov	r1, #0
 111 000c 7022     		mov	r2, #112
 112 000e FFF7FEFF 		bl	I2CWriteByte
  66:.\hmc5883l.c  ****         (HMC5883L_AVERAGING_8 << (HMC5883L_CRA_AVERAGE_BIT - HMC5883L_CRA_AVERAGE_LENGTH + 1)) |
  67:.\hmc5883l.c  ****         (HMC5883L_RATE_15     << (HMC5883L_CRA_RATE_BIT - HMC5883L_CRA_RATE_LENGTH + 1)) |
  68:.\hmc5883l.c  ****         (HMC5883L_BIAS_NORMAL << (HMC5883L_CRA_BIAS_BIT - HMC5883L_CRA_BIAS_LENGTH + 1)));
  69:.\hmc5883l.c  **** 
  70:.\hmc5883l.c  ****     // write CONFIG_B register
  71:.\hmc5883l.c  ****     HMC5883L_setGain(HMC5883L_GAIN_1090);
 113              		.loc 1 71 0
 114 0012 0120     		mov	r0, #1
 115 0014 FFF7FEFF 		bl	HMC5883L_setGain
  72:.\hmc5883l.c  ****     
  73:.\hmc5883l.c  ****     // write MODE register
  74:.\hmc5883l.c  ****     HMC5883L_setMode(HMC5883L_MODE_SINGLE);
 116              		.loc 1 74 0
 117 0018 0120     		mov	r0, #1
 118 001a FFF7FEFF 		bl	HMC5883L_setMode
  75:.\hmc5883l.c  **** }
 119              		.loc 1 75 0
 120 001e BD46     		mov	sp, r7
 121              		@ sp needed
 122 0020 80BD     		pop	{r7, pc}
 123              	.L9:
 124 0022 C046     		.align	2
 125              	.L8:
 126 0024 00000000 		.word	devAddr
 127              		.cfi_endproc
 128              	.LFE35:
 129              		.size	HMC5883L_initialize, .-HMC5883L_initialize
 130              		.section	.text.HMC5883L_testConnection,"ax",%progbits
 131              		.align	2
 132              		.global	HMC5883L_testConnection
 133              		.code	16
 134              		.thumb_func
 135              		.type	HMC5883L_testConnection, %function
 136              	HMC5883L_testConnection:
 137              	.LFB36:
  76:.\hmc5883l.c  **** 
  77:.\hmc5883l.c  **** /** Verify the I2C connection.
  78:.\hmc5883l.c  ****  * Make sure the device is connected and responds as expected.
  79:.\hmc5883l.c  ****  * @return True if connection is valid, false otherwise
  80:.\hmc5883l.c  ****  */
  81:.\hmc5883l.c  **** bool HMC5883L_testConnection() {
 138              		.loc 1 81 0
 139              		.cfi_startproc
 140 0000 80B5     		push	{r7, lr}
 141              		.cfi_def_cfa_offset 8
 142              		.cfi_offset 7, -8
 143              		.cfi_offset 14, -4
 144 0002 00AF     		add	r7, sp, #0
 145              		.cfi_def_cfa_register 7
  82:.\hmc5883l.c  ****     I2CReadBytes(devAddr, HMC5883L_RA_ID_A, 3, buffer);
 146              		.loc 1 82 0
ARM GAS  C:\Users\Sam\AppData\Local\Temp\ccJjUaFv.s 			page 5


 147 0004 0C4B     		ldr	r3, .L13
 148 0006 1A78     		ldrb	r2, [r3]
 149 0008 0C4B     		ldr	r3, .L13+4
 150 000a 101C     		mov	r0, r2
 151 000c 0A21     		mov	r1, #10
 152 000e 0322     		mov	r2, #3
 153 0010 FFF7FEFF 		bl	I2CReadBytes
  83:.\hmc5883l.c  ****     if(buffer[0] == 'H' && buffer[1] == '4' && buffer[2] == '3'){
 154              		.loc 1 83 0
 155 0014 094B     		ldr	r3, .L13+4
 156 0016 1B78     		ldrb	r3, [r3]
 157 0018 482B     		cmp	r3, #72
 158 001a 09D1     		bne	.L11
 159              		.loc 1 83 0 is_stmt 0 discriminator 1
 160 001c 074B     		ldr	r3, .L13+4
 161 001e 5B78     		ldrb	r3, [r3, #1]
 162 0020 342B     		cmp	r3, #52
 163 0022 05D1     		bne	.L11
 164 0024 054B     		ldr	r3, .L13+4
 165 0026 9B78     		ldrb	r3, [r3, #2]
 166 0028 332B     		cmp	r3, #51
 167 002a 01D1     		bne	.L11
  84:.\hmc5883l.c  ****         return 1;
 168              		.loc 1 84 0 is_stmt 1
 169 002c 0123     		mov	r3, #1
 170 002e 00E0     		b	.L12
 171              	.L11:
  85:.\hmc5883l.c  ****     }
  86:.\hmc5883l.c  ****     else{
  87:.\hmc5883l.c  ****         return 0;
 172              		.loc 1 87 0
 173 0030 0023     		mov	r3, #0
 174              	.L12:
  88:.\hmc5883l.c  ****     }
  89:.\hmc5883l.c  ****   }
 175              		.loc 1 89 0
 176 0032 181C     		mov	r0, r3
 177 0034 BD46     		mov	sp, r7
 178              		@ sp needed
 179 0036 80BD     		pop	{r7, pc}
 180              	.L14:
 181              		.align	2
 182              	.L13:
 183 0038 00000000 		.word	devAddr
 184 003c 00000000 		.word	buffer
 185              		.cfi_endproc
 186              	.LFE36:
 187              		.size	HMC5883L_testConnection, .-HMC5883L_testConnection
 188              		.section	.text.HMC5883L_getSampleAveraging,"ax",%progbits
 189              		.align	2
 190              		.global	HMC5883L_getSampleAveraging
 191              		.code	16
 192              		.thumb_func
 193              		.type	HMC5883L_getSampleAveraging, %function
 194              	HMC5883L_getSampleAveraging:
 195              	.LFB37:
  90:.\hmc5883l.c  **** //I2CReadBytes(uint8_t devAddr, uint8_t regAddr, uint8_t length, uint8_t *value)
ARM GAS  C:\Users\Sam\AppData\Local\Temp\ccJjUaFv.s 			page 6


  91:.\hmc5883l.c  ****   //return false;
  92:.\hmc5883l.c  **** 
  93:.\hmc5883l.c  **** 
  94:.\hmc5883l.c  **** //uint8_t HMC5883L_getDeviceID() {
  95:.\hmc5883l.c  **** //   I2CReadBits(devAddr, MPU6050_RA_WHO_AM_I, MPU6050_WHO_AM_I_BIT, MPU6050_WHO_AM_I_LENGTH, buffe
  96:.\hmc5883l.c  **** //   return buffer[0];
  97:.\hmc5883l.c  **** //}
  98:.\hmc5883l.c  **** 
  99:.\hmc5883l.c  **** // CONFIG_A register
 100:.\hmc5883l.c  **** 
 101:.\hmc5883l.c  **** /** Get number of samples averaged per measurement.
 102:.\hmc5883l.c  ****  * @return Current samples averaged per measurement (0-3 for 1/2/4/8 respectively)
 103:.\hmc5883l.c  ****  * @see HMC5883L_AVERAGING_8
 104:.\hmc5883l.c  ****  * @see HMC5883L_RA_CONFIG_A
 105:.\hmc5883l.c  ****  * @see HMC5883L_CRA_AVERAGE_BIT
 106:.\hmc5883l.c  ****  * @see HMC5883L_CRA_AVERAGE_LENGTH
 107:.\hmc5883l.c  ****  */
 108:.\hmc5883l.c  **** uint8_t HMC5883L_getSampleAveraging() {
 196              		.loc 1 108 0
 197              		.cfi_startproc
 198 0000 80B5     		push	{r7, lr}
 199              		.cfi_def_cfa_offset 8
 200              		.cfi_offset 7, -8
 201              		.cfi_offset 14, -4
 202 0002 00AF     		add	r7, sp, #0
 203              		.cfi_def_cfa_register 7
 109:.\hmc5883l.c  ****     //I2Cdev::readBits(devAddr, HMC5883L_RA_CONFIG_A, HMC5883L_CRA_AVERAGE_BIT, HMC5883L_CRA_AVERAG
 110:.\hmc5883l.c  ****     return buffer[0];
 204              		.loc 1 110 0
 205 0004 024B     		ldr	r3, .L17
 206 0006 1B78     		ldrb	r3, [r3]
 111:.\hmc5883l.c  **** }
 207              		.loc 1 111 0
 208 0008 181C     		mov	r0, r3
 209 000a BD46     		mov	sp, r7
 210              		@ sp needed
 211 000c 80BD     		pop	{r7, pc}
 212              	.L18:
 213 000e C046     		.align	2
 214              	.L17:
 215 0010 00000000 		.word	buffer
 216              		.cfi_endproc
 217              	.LFE37:
 218              		.size	HMC5883L_getSampleAveraging, .-HMC5883L_getSampleAveraging
 219              		.section	.text.HMC5883L_setSampleAveraging,"ax",%progbits
 220              		.align	2
 221              		.global	HMC5883L_setSampleAveraging
 222              		.code	16
 223              		.thumb_func
 224              		.type	HMC5883L_setSampleAveraging, %function
 225              	HMC5883L_setSampleAveraging:
 226              	.LFB38:
 112:.\hmc5883l.c  **** /** Set number of samples averaged per measurement.
 113:.\hmc5883l.c  ****  * @param averaging New samples averaged per measurement setting(0-3 for 1/2/4/8 respectively)
 114:.\hmc5883l.c  ****  * @see HMC5883L_RA_CONFIG_A
 115:.\hmc5883l.c  ****  * @see HMC5883L_CRA_AVERAGE_BIT
 116:.\hmc5883l.c  ****  * @see HMC5883L_CRA_AVERAGE_LENGTH
ARM GAS  C:\Users\Sam\AppData\Local\Temp\ccJjUaFv.s 			page 7


 117:.\hmc5883l.c  ****  */
 118:.\hmc5883l.c  **** void HMC5883L_setSampleAveraging(uint8_t averaging) {
 227              		.loc 1 118 0
 228              		.cfi_startproc
 229 0000 80B5     		push	{r7, lr}
 230              		.cfi_def_cfa_offset 8
 231              		.cfi_offset 7, -8
 232              		.cfi_offset 14, -4
 233 0002 82B0     		sub	sp, sp, #8
 234              		.cfi_def_cfa_offset 16
 235 0004 00AF     		add	r7, sp, #0
 236              		.cfi_def_cfa_register 7
 237 0006 021C     		mov	r2, r0
 238 0008 FB1D     		add	r3, r7, #7
 239 000a 1A70     		strb	r2, [r3]
 119:.\hmc5883l.c  ****     //I2Cdev::writeBits(devAddr, HMC5883L_RA_CONFIG_A, HMC5883L_CRA_AVERAGE_BIT, HMC5883L_CRA_AVERA
 120:.\hmc5883l.c  ****     asm("nop");
 240              		.loc 1 120 0
 241              	@ 120 ".\hmc5883l.c" 1
 242 000c C046     		nop
 243              	@ 0 "" 2
 121:.\hmc5883l.c  **** }
 244              		.loc 1 121 0
 245              		.code	16
 246 000e BD46     		mov	sp, r7
 247 0010 02B0     		add	sp, sp, #8
 248              		@ sp needed
 249 0012 80BD     		pop	{r7, pc}
 250              		.cfi_endproc
 251              	.LFE38:
 252              		.size	HMC5883L_setSampleAveraging, .-HMC5883L_setSampleAveraging
 253              		.section	.text.HMC5883L_getDataRate,"ax",%progbits
 254              		.align	2
 255              		.global	HMC5883L_getDataRate
 256              		.code	16
 257              		.thumb_func
 258              		.type	HMC5883L_getDataRate, %function
 259              	HMC5883L_getDataRate:
 260              	.LFB39:
 122:.\hmc5883l.c  **** /** Get data output rate value.
 123:.\hmc5883l.c  ****  * The Table below shows all selectable output rates in continuous measurement
 124:.\hmc5883l.c  ****  * mode. All three channels shall be measured within a given output rate. Other
 125:.\hmc5883l.c  ****  * output rates with maximum rate of 160 Hz can be achieved by monitoring DRDY
 126:.\hmc5883l.c  ****  * interrupt pin in single measurement mode.
 127:.\hmc5883l.c  ****  *
 128:.\hmc5883l.c  ****  * Value | Typical Data Output Rate (Hz)
 129:.\hmc5883l.c  ****  * ------+------------------------------
 130:.\hmc5883l.c  ****  * 0     | 0.75
 131:.\hmc5883l.c  ****  * 1     | 1.5
 132:.\hmc5883l.c  ****  * 2     | 3
 133:.\hmc5883l.c  ****  * 3     | 7.5
 134:.\hmc5883l.c  ****  * 4     | 15 (Default)
 135:.\hmc5883l.c  ****  * 5     | 30
 136:.\hmc5883l.c  ****  * 6     | 75
 137:.\hmc5883l.c  ****  * 7     | Not used
 138:.\hmc5883l.c  ****  *
 139:.\hmc5883l.c  ****  * @return Current rate of data output to registers
ARM GAS  C:\Users\Sam\AppData\Local\Temp\ccJjUaFv.s 			page 8


 140:.\hmc5883l.c  ****  * @see HMC5883L_RATE_15
 141:.\hmc5883l.c  ****  * @see HMC5883L_RA_CONFIG_A
 142:.\hmc5883l.c  ****  * @see HMC5883L_CRA_RATE_BIT
 143:.\hmc5883l.c  ****  * @see HMC5883L_CRA_RATE_LENGTH
 144:.\hmc5883l.c  ****  */
 145:.\hmc5883l.c  **** uint8_t HMC5883L_getDataRate() {
 261              		.loc 1 145 0
 262              		.cfi_startproc
 263 0000 80B5     		push	{r7, lr}
 264              		.cfi_def_cfa_offset 8
 265              		.cfi_offset 7, -8
 266              		.cfi_offset 14, -4
 267 0002 00AF     		add	r7, sp, #0
 268              		.cfi_def_cfa_register 7
 146:.\hmc5883l.c  ****     //I2Cdev::readBits(devAddr, HMC5883L_RA_CONFIG_A, HMC5883L_CRA_RATE_BIT, HMC5883L_CRA_RATE_LENG
 147:.\hmc5883l.c  ****     return buffer[0];
 269              		.loc 1 147 0
 270 0004 024B     		ldr	r3, .L22
 271 0006 1B78     		ldrb	r3, [r3]
 148:.\hmc5883l.c  **** }
 272              		.loc 1 148 0
 273 0008 181C     		mov	r0, r3
 274 000a BD46     		mov	sp, r7
 275              		@ sp needed
 276 000c 80BD     		pop	{r7, pc}
 277              	.L23:
 278 000e C046     		.align	2
 279              	.L22:
 280 0010 00000000 		.word	buffer
 281              		.cfi_endproc
 282              	.LFE39:
 283              		.size	HMC5883L_getDataRate, .-HMC5883L_getDataRate
 284              		.section	.text.HMC5883L_setDataRate,"ax",%progbits
 285              		.align	2
 286              		.global	HMC5883L_setDataRate
 287              		.code	16
 288              		.thumb_func
 289              		.type	HMC5883L_setDataRate, %function
 290              	HMC5883L_setDataRate:
 291              	.LFB40:
 149:.\hmc5883l.c  **** /** Set data output rate value.
 150:.\hmc5883l.c  ****  * @param rate Rate of data output to registers
 151:.\hmc5883l.c  ****  * @see getDataRate()
 152:.\hmc5883l.c  ****  * @see HMC5883L_RATE_15
 153:.\hmc5883l.c  ****  * @see HMC5883L_RA_CONFIG_A
 154:.\hmc5883l.c  ****  * @see HMC5883L_CRA_RATE_BIT
 155:.\hmc5883l.c  ****  * @see HMC5883L_CRA_RATE_LENGTH
 156:.\hmc5883l.c  ****  */
 157:.\hmc5883l.c  **** void HMC5883L_setDataRate(uint8_t rate) {
 292              		.loc 1 157 0
 293              		.cfi_startproc
 294 0000 80B5     		push	{r7, lr}
 295              		.cfi_def_cfa_offset 8
 296              		.cfi_offset 7, -8
 297              		.cfi_offset 14, -4
 298 0002 82B0     		sub	sp, sp, #8
 299              		.cfi_def_cfa_offset 16
ARM GAS  C:\Users\Sam\AppData\Local\Temp\ccJjUaFv.s 			page 9


 300 0004 00AF     		add	r7, sp, #0
 301              		.cfi_def_cfa_register 7
 302 0006 021C     		mov	r2, r0
 303 0008 FB1D     		add	r3, r7, #7
 304 000a 1A70     		strb	r2, [r3]
 158:.\hmc5883l.c  ****     //I2Cdev::writeBits(devAddr, HMC5883L_RA_CONFIG_A, HMC5883L_CRA_RATE_BIT, HMC5883L_CRA_RATE_LEN
 159:.\hmc5883l.c  **** }
 305              		.loc 1 159 0
 306 000c BD46     		mov	sp, r7
 307 000e 02B0     		add	sp, sp, #8
 308              		@ sp needed
 309 0010 80BD     		pop	{r7, pc}
 310              		.cfi_endproc
 311              	.LFE40:
 312              		.size	HMC5883L_setDataRate, .-HMC5883L_setDataRate
 313 0012 C046     		.section	.text.HMC5883L_getMeasurementBias,"ax",%progbits
 314              		.align	2
 315              		.global	HMC5883L_getMeasurementBias
 316              		.code	16
 317              		.thumb_func
 318              		.type	HMC5883L_getMeasurementBias, %function
 319              	HMC5883L_getMeasurementBias:
 320              	.LFB41:
 160:.\hmc5883l.c  **** /** Get measurement bias value.
 161:.\hmc5883l.c  ****  * @return Current bias value (0-2 for normal/positive/negative respectively)
 162:.\hmc5883l.c  ****  * @see HMC5883L_BIAS_NORMAL
 163:.\hmc5883l.c  ****  * @see HMC5883L_RA_CONFIG_A
 164:.\hmc5883l.c  ****  * @see HMC5883L_CRA_BIAS_BIT
 165:.\hmc5883l.c  ****  * @see HMC5883L_CRA_BIAS_LENGTH
 166:.\hmc5883l.c  ****  */
 167:.\hmc5883l.c  **** uint8_t HMC5883L_getMeasurementBias() {
 321              		.loc 1 167 0
 322              		.cfi_startproc
 323 0000 80B5     		push	{r7, lr}
 324              		.cfi_def_cfa_offset 8
 325              		.cfi_offset 7, -8
 326              		.cfi_offset 14, -4
 327 0002 00AF     		add	r7, sp, #0
 328              		.cfi_def_cfa_register 7
 168:.\hmc5883l.c  ****    //I2Cdev::readBits(devAddr, HMC5883L_RA_CONFIG_A, HMC5883L_CRA_BIAS_BIT, HMC5883L_CRA_BIAS_LENGT
 169:.\hmc5883l.c  ****     return buffer[0];
 329              		.loc 1 169 0
 330 0004 024B     		ldr	r3, .L27
 331 0006 1B78     		ldrb	r3, [r3]
 170:.\hmc5883l.c  **** }
 332              		.loc 1 170 0
 333 0008 181C     		mov	r0, r3
 334 000a BD46     		mov	sp, r7
 335              		@ sp needed
 336 000c 80BD     		pop	{r7, pc}
 337              	.L28:
 338 000e C046     		.align	2
 339              	.L27:
 340 0010 00000000 		.word	buffer
 341              		.cfi_endproc
 342              	.LFE41:
 343              		.size	HMC5883L_getMeasurementBias, .-HMC5883L_getMeasurementBias
ARM GAS  C:\Users\Sam\AppData\Local\Temp\ccJjUaFv.s 			page 10


 344              		.section	.text.HMC5883L_setMeasurementBias,"ax",%progbits
 345              		.align	2
 346              		.global	HMC5883L_setMeasurementBias
 347              		.code	16
 348              		.thumb_func
 349              		.type	HMC5883L_setMeasurementBias, %function
 350              	HMC5883L_setMeasurementBias:
 351              	.LFB42:
 171:.\hmc5883l.c  **** /** Set measurement bias value.
 172:.\hmc5883l.c  ****  * @param bias New bias value (0-2 for normal/positive/negative respectively)
 173:.\hmc5883l.c  ****  * @see HMC5883L_BIAS_NORMAL
 174:.\hmc5883l.c  ****  * @see HMC5883L_RA_CONFIG_A
 175:.\hmc5883l.c  ****  * @see HMC5883L_CRA_BIAS_BIT
 176:.\hmc5883l.c  ****  * @see HMC5883L_CRA_BIAS_LENGTH
 177:.\hmc5883l.c  ****  */
 178:.\hmc5883l.c  **** void HMC5883L_setMeasurementBias(uint8_t bias) {
 352              		.loc 1 178 0
 353              		.cfi_startproc
 354 0000 80B5     		push	{r7, lr}
 355              		.cfi_def_cfa_offset 8
 356              		.cfi_offset 7, -8
 357              		.cfi_offset 14, -4
 358 0002 82B0     		sub	sp, sp, #8
 359              		.cfi_def_cfa_offset 16
 360 0004 00AF     		add	r7, sp, #0
 361              		.cfi_def_cfa_register 7
 362 0006 021C     		mov	r2, r0
 363 0008 FB1D     		add	r3, r7, #7
 364 000a 1A70     		strb	r2, [r3]
 179:.\hmc5883l.c  ****     //I2Cdev::writeBits(devAddr, HMC5883L_RA_CONFIG_A, HMC5883L_CRA_BIAS_BIT, HMC5883L_CRA_BIAS_LEN
 180:.\hmc5883l.c  ****     asm("nop");
 365              		.loc 1 180 0
 366              	@ 180 ".\hmc5883l.c" 1
 367 000c C046     		nop
 368              	@ 0 "" 2
 181:.\hmc5883l.c  **** }
 369              		.loc 1 181 0
 370              		.code	16
 371 000e BD46     		mov	sp, r7
 372 0010 02B0     		add	sp, sp, #8
 373              		@ sp needed
 374 0012 80BD     		pop	{r7, pc}
 375              		.cfi_endproc
 376              	.LFE42:
 377              		.size	HMC5883L_setMeasurementBias, .-HMC5883L_setMeasurementBias
 378              		.section	.text.HMC5883L_getGain,"ax",%progbits
 379              		.align	2
 380              		.global	HMC5883L_getGain
 381              		.code	16
 382              		.thumb_func
 383              		.type	HMC5883L_getGain, %function
 384              	HMC5883L_getGain:
 385              	.LFB43:
 182:.\hmc5883l.c  **** 
 183:.\hmc5883l.c  **** // CONFIG_B register
 184:.\hmc5883l.c  **** 
 185:.\hmc5883l.c  **** /** Get magnetic field gain value.
ARM GAS  C:\Users\Sam\AppData\Local\Temp\ccJjUaFv.s 			page 11


 186:.\hmc5883l.c  ****  * The table below shows nominal gain settings. Use the "Gain" column to convert
 187:.\hmc5883l.c  ****  * counts to Gauss. Choose a lower gain value (higher GN#) when total field
 188:.\hmc5883l.c  ****  * strength causes overflow in one of the data output registers (saturation).
 189:.\hmc5883l.c  ****  * The data output range for all settings is 0xF800-0x07FF (-2048 - 2047).
 190:.\hmc5883l.c  ****  *
 191:.\hmc5883l.c  ****  * Value | Field Range | Gain (LSB/Gauss)
 192:.\hmc5883l.c  ****  * ------+-------------+-----------------
 193:.\hmc5883l.c  ****  * 0     | +/- 0.88 Ga | 1370
 194:.\hmc5883l.c  ****  * 1     | +/- 1.3 Ga  | 1090 (Default)
 195:.\hmc5883l.c  ****  * 2     | +/- 1.9 Ga  | 820
 196:.\hmc5883l.c  ****  * 3     | +/- 2.5 Ga  | 660
 197:.\hmc5883l.c  ****  * 4     | +/- 4.0 Ga  | 440
 198:.\hmc5883l.c  ****  * 5     | +/- 4.7 Ga  | 390
 199:.\hmc5883l.c  ****  * 6     | +/- 5.6 Ga  | 330
 200:.\hmc5883l.c  ****  * 7     | +/- 8.1 Ga  | 230
 201:.\hmc5883l.c  ****  *
 202:.\hmc5883l.c  ****  * @return Current magnetic field gain value
 203:.\hmc5883l.c  ****  * @see HMC5883L_GAIN_1090
 204:.\hmc5883l.c  ****  * @see HMC5883L_RA_CONFIG_B
 205:.\hmc5883l.c  ****  * @see HMC5883L_CRB_GAIN_BIT
 206:.\hmc5883l.c  ****  * @see HMC5883L_CRB_GAIN_LENGTH
 207:.\hmc5883l.c  ****  */
 208:.\hmc5883l.c  **** uint8_t HMC5883L_getGain() {
 386              		.loc 1 208 0
 387              		.cfi_startproc
 388 0000 80B5     		push	{r7, lr}
 389              		.cfi_def_cfa_offset 8
 390              		.cfi_offset 7, -8
 391              		.cfi_offset 14, -4
 392 0002 00AF     		add	r7, sp, #0
 393              		.cfi_def_cfa_register 7
 209:.\hmc5883l.c  ****     //I2Cdev::readBits(devAddr, HMC5883L_RA_CONFIG_B, HMC5883L_CRB_GAIN_BIT, HMC5883L_CRB_GAIN_LENG
 210:.\hmc5883l.c  ****     return buffer[0];
 394              		.loc 1 210 0
 395 0004 024B     		ldr	r3, .L32
 396 0006 1B78     		ldrb	r3, [r3]
 211:.\hmc5883l.c  **** }
 397              		.loc 1 211 0
 398 0008 181C     		mov	r0, r3
 399 000a BD46     		mov	sp, r7
 400              		@ sp needed
 401 000c 80BD     		pop	{r7, pc}
 402              	.L33:
 403 000e C046     		.align	2
 404              	.L32:
 405 0010 00000000 		.word	buffer
 406              		.cfi_endproc
 407              	.LFE43:
 408              		.size	HMC5883L_getGain, .-HMC5883L_getGain
 409              		.section	.text.HMC5883L_setGain,"ax",%progbits
 410              		.align	2
 411              		.global	HMC5883L_setGain
 412              		.code	16
 413              		.thumb_func
 414              		.type	HMC5883L_setGain, %function
 415              	HMC5883L_setGain:
 416              	.LFB44:
ARM GAS  C:\Users\Sam\AppData\Local\Temp\ccJjUaFv.s 			page 12


 212:.\hmc5883l.c  **** /** Set magnetic field gain value.
 213:.\hmc5883l.c  ****  * @param gain New magnetic field gain value
 214:.\hmc5883l.c  ****  * @see getGain()
 215:.\hmc5883l.c  ****  * @see HMC5883L_RA_CONFIG_B
 216:.\hmc5883l.c  ****  * @see HMC5883L_CRB_GAIN_BIT
 217:.\hmc5883l.c  ****  * @see HMC5883L_CRB_GAIN_LENGTH
 218:.\hmc5883l.c  ****  */
 219:.\hmc5883l.c  **** void HMC5883L_setGain(uint8_t gain) {
 417              		.loc 1 219 0
 418              		.cfi_startproc
 419 0000 80B5     		push	{r7, lr}
 420              		.cfi_def_cfa_offset 8
 421              		.cfi_offset 7, -8
 422              		.cfi_offset 14, -4
 423 0002 82B0     		sub	sp, sp, #8
 424              		.cfi_def_cfa_offset 16
 425 0004 00AF     		add	r7, sp, #0
 426              		.cfi_def_cfa_register 7
 427 0006 021C     		mov	r2, r0
 428 0008 FB1D     		add	r3, r7, #7
 429 000a 1A70     		strb	r2, [r3]
 220:.\hmc5883l.c  ****     // use this method to guarantee that bits 4-0 are set to zero, which is a
 221:.\hmc5883l.c  ****     // requirement specified in the datasheet; it's actually more efficient than
 222:.\hmc5883l.c  ****     // using the I2Cdev.writeBits method
 223:.\hmc5883l.c  ****     I2CWriteByte(devAddr, HMC5883L_RA_CONFIG_B, gain << (HMC5883L_CRB_GAIN_BIT - HMC5883L_CRB_GAIN_
 430              		.loc 1 223 0
 431 000c 064B     		ldr	r3, .L35
 432 000e 1A78     		ldrb	r2, [r3]
 433 0010 FB1D     		add	r3, r7, #7
 434 0012 1B78     		ldrb	r3, [r3]
 435 0014 5B01     		lsl	r3, r3, #5
 436 0016 DBB2     		uxtb	r3, r3
 437 0018 101C     		mov	r0, r2
 438 001a 0121     		mov	r1, #1
 439 001c 1A1C     		mov	r2, r3
 440 001e FFF7FEFF 		bl	I2CWriteByte
 224:.\hmc5883l.c  **** }
 441              		.loc 1 224 0
 442 0022 BD46     		mov	sp, r7
 443 0024 02B0     		add	sp, sp, #8
 444              		@ sp needed
 445 0026 80BD     		pop	{r7, pc}
 446              	.L36:
 447              		.align	2
 448              	.L35:
 449 0028 00000000 		.word	devAddr
 450              		.cfi_endproc
 451              	.LFE44:
 452              		.size	HMC5883L_setGain, .-HMC5883L_setGain
 453              		.section	.text.HMC5883L_getMode,"ax",%progbits
 454              		.align	2
 455              		.global	HMC5883L_getMode
 456              		.code	16
 457              		.thumb_func
 458              		.type	HMC5883L_getMode, %function
 459              	HMC5883L_getMode:
 460              	.LFB45:
ARM GAS  C:\Users\Sam\AppData\Local\Temp\ccJjUaFv.s 			page 13


 225:.\hmc5883l.c  **** 
 226:.\hmc5883l.c  **** // MODE register
 227:.\hmc5883l.c  **** 
 228:.\hmc5883l.c  **** /** Get measurement mode.
 229:.\hmc5883l.c  ****  * In continuous-measurement mode, the device continuously performs measurements
 230:.\hmc5883l.c  ****  * and places the result in the data register. RDY goes high when new data is
 231:.\hmc5883l.c  ****  * placed in all three registers. After a power-on or a write to the mode or
 232:.\hmc5883l.c  ****  * configuration register, the first measurement set is available from all three
 233:.\hmc5883l.c  ****  * data output registers after a period of 2/fDO and subsequent measurements are
 234:.\hmc5883l.c  ****  * available at a frequency of fDO, where fDO is the frequency of data output.
 235:.\hmc5883l.c  ****  *
 236:.\hmc5883l.c  ****  * When single-measurement mode (default) is selected, device performs a single
 237:.\hmc5883l.c  ****  * measurement, sets RDY high and returned to idle mode. Mode register returns
 238:.\hmc5883l.c  ****  * to idle mode bit values. The measurement remains in the data output register
 239:.\hmc5883l.c  ****  * and RDY remains high until the data output register is read or another
 240:.\hmc5883l.c  ****  * measurement is performed.
 241:.\hmc5883l.c  ****  *
 242:.\hmc5883l.c  ****  * @return Current measurement mode
 243:.\hmc5883l.c  ****  * @see HMC5883L_MODE_CONTINUOUS
 244:.\hmc5883l.c  ****  * @see HMC5883L_MODE_SINGLE
 245:.\hmc5883l.c  ****  * @see HMC5883L_MODE_IDLE
 246:.\hmc5883l.c  ****  * @see HMC5883L_RA_MODE
 247:.\hmc5883l.c  ****  * @see HMC5883L_MODEREG_BIT
 248:.\hmc5883l.c  ****  * @see HMC5883L_MODEREG_LENGTH
 249:.\hmc5883l.c  ****  */
 250:.\hmc5883l.c  **** uint8_t HMC5883L_getMode() {
 461              		.loc 1 250 0
 462              		.cfi_startproc
 463 0000 80B5     		push	{r7, lr}
 464              		.cfi_def_cfa_offset 8
 465              		.cfi_offset 7, -8
 466              		.cfi_offset 14, -4
 467 0002 00AF     		add	r7, sp, #0
 468              		.cfi_def_cfa_register 7
 251:.\hmc5883l.c  ****     //I2Cdev::readBits(devAddr, HMC5883L_RA_MODE, HMC5883L_MODEREG_BIT, HMC5883L_MODEREG_LENGTH, bu
 252:.\hmc5883l.c  ****     return buffer[0];
 469              		.loc 1 252 0
 470 0004 024B     		ldr	r3, .L39
 471 0006 1B78     		ldrb	r3, [r3]
 253:.\hmc5883l.c  **** }
 472              		.loc 1 253 0
 473 0008 181C     		mov	r0, r3
 474 000a BD46     		mov	sp, r7
 475              		@ sp needed
 476 000c 80BD     		pop	{r7, pc}
 477              	.L40:
 478 000e C046     		.align	2
 479              	.L39:
 480 0010 00000000 		.word	buffer
 481              		.cfi_endproc
 482              	.LFE45:
 483              		.size	HMC5883L_getMode, .-HMC5883L_getMode
 484              		.section	.text.HMC5883L_setMode,"ax",%progbits
 485              		.align	2
 486              		.global	HMC5883L_setMode
 487              		.code	16
 488              		.thumb_func
ARM GAS  C:\Users\Sam\AppData\Local\Temp\ccJjUaFv.s 			page 14


 489              		.type	HMC5883L_setMode, %function
 490              	HMC5883L_setMode:
 491              	.LFB46:
 254:.\hmc5883l.c  **** /** Set measurement mode.
 255:.\hmc5883l.c  ****  * @param newMode New measurement mode
 256:.\hmc5883l.c  ****  * @see getMode()
 257:.\hmc5883l.c  ****  * @see HMC5883L_MODE_CONTINUOUS
 258:.\hmc5883l.c  ****  * @see HMC5883L_MODE_SINGLE
 259:.\hmc5883l.c  ****  * @see HMC5883L_MODE_IDLE
 260:.\hmc5883l.c  ****  * @see HMC5883L_RA_MODE
 261:.\hmc5883l.c  ****  * @see HMC5883L_MODEREG_BIT
 262:.\hmc5883l.c  ****  * @see HMC5883L_MODEREG_LENGTH
 263:.\hmc5883l.c  ****  */
 264:.\hmc5883l.c  **** void HMC5883L_setMode(uint8_t newMode) {
 492              		.loc 1 264 0
 493              		.cfi_startproc
 494 0000 80B5     		push	{r7, lr}
 495              		.cfi_def_cfa_offset 8
 496              		.cfi_offset 7, -8
 497              		.cfi_offset 14, -4
 498 0002 82B0     		sub	sp, sp, #8
 499              		.cfi_def_cfa_offset 16
 500 0004 00AF     		add	r7, sp, #0
 501              		.cfi_def_cfa_register 7
 502 0006 021C     		mov	r2, r0
 503 0008 FB1D     		add	r3, r7, #7
 504 000a 1A70     		strb	r2, [r3]
 265:.\hmc5883l.c  ****     // use this method to guarantee that bits 7-2 are set to zero, which is a
 266:.\hmc5883l.c  ****     // requirement specified in the datasheet; it's actually more efficient than
 267:.\hmc5883l.c  ****     // using the I2Cdev.writeBits method
 268:.\hmc5883l.c  ****     I2CWriteByte(devAddr, HMC5883L_RA_MODE, newMode << (HMC5883L_MODEREG_BIT - HMC5883L_MODEREG_LEN
 505              		.loc 1 268 0
 506 000c 074B     		ldr	r3, .L42
 507 000e 1A78     		ldrb	r2, [r3]
 508 0010 FB1D     		add	r3, r7, #7
 509 0012 1B78     		ldrb	r3, [r3]
 510 0014 101C     		mov	r0, r2
 511 0016 0221     		mov	r1, #2
 512 0018 1A1C     		mov	r2, r3
 513 001a FFF7FEFF 		bl	I2CWriteByte
 269:.\hmc5883l.c  ****     mode = newMode; // track to tell if we have to clear bit 7 after a read
 514              		.loc 1 269 0
 515 001e 044B     		ldr	r3, .L42+4
 516 0020 FA1D     		add	r2, r7, #7
 517 0022 1278     		ldrb	r2, [r2]
 518 0024 1A70     		strb	r2, [r3]
 270:.\hmc5883l.c  **** }
 519              		.loc 1 270 0
 520 0026 BD46     		mov	sp, r7
 521 0028 02B0     		add	sp, sp, #8
 522              		@ sp needed
 523 002a 80BD     		pop	{r7, pc}
 524              	.L43:
 525              		.align	2
 526              	.L42:
 527 002c 00000000 		.word	devAddr
 528 0030 00000000 		.word	mode
ARM GAS  C:\Users\Sam\AppData\Local\Temp\ccJjUaFv.s 			page 15


 529              		.cfi_endproc
 530              	.LFE46:
 531              		.size	HMC5883L_setMode, .-HMC5883L_setMode
 532              		.section	.text.HMC5883L_getHeading,"ax",%progbits
 533              		.align	2
 534              		.global	HMC5883L_getHeading
 535              		.code	16
 536              		.thumb_func
 537              		.type	HMC5883L_getHeading, %function
 538              	HMC5883L_getHeading:
 539              	.LFB47:
 271:.\hmc5883l.c  **** 
 272:.\hmc5883l.c  **** // DATA* registers
 273:.\hmc5883l.c  **** 
 274:.\hmc5883l.c  **** /** Get 3-axis heading measurements.
 275:.\hmc5883l.c  ****  * In the event the ADC reading overflows or underflows for the given channel,
 276:.\hmc5883l.c  ****  * or if there is a math overflow during the bias measurement, this data
 277:.\hmc5883l.c  ****  * register will contain the value -4096. This register value will clear when
 278:.\hmc5883l.c  ****  * after the next valid measurement is made. Note that this method automatically
 279:.\hmc5883l.c  ****  * clears the appropriate bit in the MODE register if Single mode is active.
 280:.\hmc5883l.c  ****  * @param x 16-bit signed integer container for X-axis heading
 281:.\hmc5883l.c  ****  * @param y 16-bit signed integer container for Y-axis heading
 282:.\hmc5883l.c  ****  * @param z 16-bit signed integer container for Z-axis heading
 283:.\hmc5883l.c  ****  * @see HMC5883L_RA_DATAX_H
 284:.\hmc5883l.c  ****  */
 285:.\hmc5883l.c  **** void HMC5883L_getHeading(int16_t *x, int16_t *y, int16_t *z) {
 540              		.loc 1 285 0
 541              		.cfi_startproc
 542 0000 80B5     		push	{r7, lr}
 543              		.cfi_def_cfa_offset 8
 544              		.cfi_offset 7, -8
 545              		.cfi_offset 14, -4
 546 0002 84B0     		sub	sp, sp, #16
 547              		.cfi_def_cfa_offset 24
 548 0004 00AF     		add	r7, sp, #0
 549              		.cfi_def_cfa_register 7
 550 0006 F860     		str	r0, [r7, #12]
 551 0008 B960     		str	r1, [r7, #8]
 552 000a 7A60     		str	r2, [r7, #4]
 286:.\hmc5883l.c  ****     I2CReadBytes(devAddr, HMC5883L_RA_DATAX_H, 6, buffer);
 553              		.loc 1 286 0
 554 000c 194B     		ldr	r3, .L46
 555 000e 1A78     		ldrb	r2, [r3]
 556 0010 194B     		ldr	r3, .L46+4
 557 0012 101C     		mov	r0, r2
 558 0014 0321     		mov	r1, #3
 559 0016 0622     		mov	r2, #6
 560 0018 FFF7FEFF 		bl	I2CReadBytes
 287:.\hmc5883l.c  ****     if(mode == HMC5883L_MODE_SINGLE) I2CWriteByte(devAddr, HMC5883L_RA_MODE, HMC5883L_MODE_SINGLE <
 561              		.loc 1 287 0
 562 001c 174B     		ldr	r3, .L46+8
 563 001e 1B78     		ldrb	r3, [r3]
 564 0020 012B     		cmp	r3, #1
 565 0022 06D1     		bne	.L45
 566              		.loc 1 287 0 is_stmt 0 discriminator 1
 567 0024 134B     		ldr	r3, .L46
 568 0026 1B78     		ldrb	r3, [r3]
ARM GAS  C:\Users\Sam\AppData\Local\Temp\ccJjUaFv.s 			page 16


 569 0028 181C     		mov	r0, r3
 570 002a 0221     		mov	r1, #2
 571 002c 0122     		mov	r2, #1
 572 002e FFF7FEFF 		bl	I2CWriteByte
 573              	.L45:
 288:.\hmc5883l.c  ****     *x = (((int16_t)buffer[0]) << 8) | buffer[1];
 574              		.loc 1 288 0 is_stmt 1
 575 0032 114B     		ldr	r3, .L46+4
 576 0034 1B78     		ldrb	r3, [r3]
 577 0036 1B02     		lsl	r3, r3, #8
 578 0038 9AB2     		uxth	r2, r3
 579 003a 0F4B     		ldr	r3, .L46+4
 580 003c 5B78     		ldrb	r3, [r3, #1]
 581 003e 1343     		orr	r3, r2
 582 0040 9AB2     		uxth	r2, r3
 583 0042 FB68     		ldr	r3, [r7, #12]
 584 0044 1A80     		strh	r2, [r3]
 289:.\hmc5883l.c  ****     *y = (((int16_t)buffer[4]) << 8) | buffer[5];
 585              		.loc 1 289 0
 586 0046 0C4B     		ldr	r3, .L46+4
 587 0048 1B79     		ldrb	r3, [r3, #4]
 588 004a 1B02     		lsl	r3, r3, #8
 589 004c 9AB2     		uxth	r2, r3
 590 004e 0A4B     		ldr	r3, .L46+4
 591 0050 5B79     		ldrb	r3, [r3, #5]
 592 0052 1343     		orr	r3, r2
 593 0054 9AB2     		uxth	r2, r3
 594 0056 BB68     		ldr	r3, [r7, #8]
 595 0058 1A80     		strh	r2, [r3]
 290:.\hmc5883l.c  ****     *z = (((int16_t)buffer[2]) << 8) | buffer[3];
 596              		.loc 1 290 0
 597 005a 074B     		ldr	r3, .L46+4
 598 005c 9B78     		ldrb	r3, [r3, #2]
 599 005e 1B02     		lsl	r3, r3, #8
 600 0060 9AB2     		uxth	r2, r3
 601 0062 054B     		ldr	r3, .L46+4
 602 0064 DB78     		ldrb	r3, [r3, #3]
 603 0066 1343     		orr	r3, r2
 604 0068 9AB2     		uxth	r2, r3
 605 006a 7B68     		ldr	r3, [r7, #4]
 606 006c 1A80     		strh	r2, [r3]
 291:.\hmc5883l.c  **** }
 607              		.loc 1 291 0
 608 006e BD46     		mov	sp, r7
 609 0070 04B0     		add	sp, sp, #16
 610              		@ sp needed
 611 0072 80BD     		pop	{r7, pc}
 612              	.L47:
 613              		.align	2
 614              	.L46:
 615 0074 00000000 		.word	devAddr
 616 0078 00000000 		.word	buffer
 617 007c 00000000 		.word	mode
 618              		.cfi_endproc
 619              	.LFE47:
 620              		.size	HMC5883L_getHeading, .-HMC5883L_getHeading
 621              		.section	.text.HMC5883L_getHeadingX,"ax",%progbits
ARM GAS  C:\Users\Sam\AppData\Local\Temp\ccJjUaFv.s 			page 17


 622              		.align	2
 623              		.global	HMC5883L_getHeadingX
 624              		.code	16
 625              		.thumb_func
 626              		.type	HMC5883L_getHeadingX, %function
 627              	HMC5883L_getHeadingX:
 628              	.LFB48:
 292:.\hmc5883l.c  **** /** Get X-axis heading measurement.
 293:.\hmc5883l.c  ****  * @return 16-bit signed integer with X-axis heading
 294:.\hmc5883l.c  ****  * @see HMC5883L_RA_DATAX_H
 295:.\hmc5883l.c  ****  */
 296:.\hmc5883l.c  **** int16_t HMC5883L_getHeadingX() {
 629              		.loc 1 296 0
 630              		.cfi_startproc
 631 0000 80B5     		push	{r7, lr}
 632              		.cfi_def_cfa_offset 8
 633              		.cfi_offset 7, -8
 634              		.cfi_offset 14, -4
 635 0002 00AF     		add	r7, sp, #0
 636              		.cfi_def_cfa_register 7
 297:.\hmc5883l.c  ****     // each axis read requires that ALL axis registers be read, even if only
 298:.\hmc5883l.c  ****     // one is used; this was not done ineffiently in the code by accident
 299:.\hmc5883l.c  ****    //I2Cdev::readBytes(devAddr, HMC5883L_RA_DATAX_H, 6, buffer);
 300:.\hmc5883l.c  ****    // if (mode == HMC5883L_MODE_SINGLE) I2Cdev::writeByte(devAddr, HMC5883L_RA_MODE, HMC5883L_MODE_
 301:.\hmc5883l.c  ****    // return (((int16_t)buffer[0]) << 8) | buffer[1];
 302:.\hmc5883l.c  **** }
 637              		.loc 1 302 0
 638 0004 181C     		mov	r0, r3
 639 0006 BD46     		mov	sp, r7
 640              		@ sp needed
 641 0008 80BD     		pop	{r7, pc}
 642              		.cfi_endproc
 643              	.LFE48:
 644              		.size	HMC5883L_getHeadingX, .-HMC5883L_getHeadingX
 645 000a C046     		.section	.text.HMC5883L_getHeadingY,"ax",%progbits
 646              		.align	2
 647              		.global	HMC5883L_getHeadingY
 648              		.code	16
 649              		.thumb_func
 650              		.type	HMC5883L_getHeadingY, %function
 651              	HMC5883L_getHeadingY:
 652              	.LFB49:
 303:.\hmc5883l.c  **** /** Get Y-axis heading measurement.
 304:.\hmc5883l.c  ****  * @return 16-bit signed integer with Y-axis heading
 305:.\hmc5883l.c  ****  * @see HMC5883L_RA_DATAY_H
 306:.\hmc5883l.c  ****  */
 307:.\hmc5883l.c  **** int16_t HMC5883L_getHeadingY() {
 653              		.loc 1 307 0
 654              		.cfi_startproc
 655 0000 80B5     		push	{r7, lr}
 656              		.cfi_def_cfa_offset 8
 657              		.cfi_offset 7, -8
 658              		.cfi_offset 14, -4
 659 0002 00AF     		add	r7, sp, #0
 660              		.cfi_def_cfa_register 7
 308:.\hmc5883l.c  ****     // each axis read requires that ALL axis registers be read, even if only
 309:.\hmc5883l.c  ****     // one is used; this was not done ineffiently in the code by accident
ARM GAS  C:\Users\Sam\AppData\Local\Temp\ccJjUaFv.s 			page 18


 310:.\hmc5883l.c  ****     //I2Cdev::readBytes(devAddr, HMC5883L_RA_DATAX_H, 6, buffer);
 311:.\hmc5883l.c  ****     //if (mode == HMC5883L_MODE_SINGLE) I2Cdev::writeByte(devAddr, HMC5883L_RA_MODE, HMC5883L_MODE_
 312:.\hmc5883l.c  ****     //return (((int16_t)buffer[4]) << 8) | buffer[5];
 313:.\hmc5883l.c  **** }
 661              		.loc 1 313 0
 662 0004 181C     		mov	r0, r3
 663 0006 BD46     		mov	sp, r7
 664              		@ sp needed
 665 0008 80BD     		pop	{r7, pc}
 666              		.cfi_endproc
 667              	.LFE49:
 668              		.size	HMC5883L_getHeadingY, .-HMC5883L_getHeadingY
 669 000a C046     		.section	.text.HMC5883L_getHeadingZ,"ax",%progbits
 670              		.align	2
 671              		.global	HMC5883L_getHeadingZ
 672              		.code	16
 673              		.thumb_func
 674              		.type	HMC5883L_getHeadingZ, %function
 675              	HMC5883L_getHeadingZ:
 676              	.LFB50:
 314:.\hmc5883l.c  **** /** Get Z-axis heading measurement.
 315:.\hmc5883l.c  ****  * @return 16-bit signed integer with Z-axis heading
 316:.\hmc5883l.c  ****  * @see HMC5883L_RA_DATAZ_H
 317:.\hmc5883l.c  ****  */
 318:.\hmc5883l.c  **** int16_t HMC5883L_getHeadingZ() {
 677              		.loc 1 318 0
 678              		.cfi_startproc
 679 0000 80B5     		push	{r7, lr}
 680              		.cfi_def_cfa_offset 8
 681              		.cfi_offset 7, -8
 682              		.cfi_offset 14, -4
 683 0002 00AF     		add	r7, sp, #0
 684              		.cfi_def_cfa_register 7
 319:.\hmc5883l.c  ****     // each axis read requires that ALL axis registers be read, even if only
 320:.\hmc5883l.c  ****     // one is used; this was not done ineffiently in the code by accident
 321:.\hmc5883l.c  ****     //I2Cdev::readBytes(devAddr, HMC5883L_RA_DATAX_H, 6, buffer);
 322:.\hmc5883l.c  ****     //if (mode == HMC5883L_MODE_SINGLE) I2Cdev::writeByte(devAddr, HMC5883L_RA_MODE, HMC5883L_MODE_
 323:.\hmc5883l.c  ****     //return (((int16_t)buffer[2]) << 8) | buffer[3];
 324:.\hmc5883l.c  **** }
 685              		.loc 1 324 0
 686 0004 181C     		mov	r0, r3
 687 0006 BD46     		mov	sp, r7
 688              		@ sp needed
 689 0008 80BD     		pop	{r7, pc}
 690              		.cfi_endproc
 691              	.LFE50:
 692              		.size	HMC5883L_getHeadingZ, .-HMC5883L_getHeadingZ
 693 000a C046     		.section	.text.HMC5883L_getLockStatus,"ax",%progbits
 694              		.align	2
 695              		.global	HMC5883L_getLockStatus
 696              		.code	16
 697              		.thumb_func
 698              		.type	HMC5883L_getLockStatus, %function
 699              	HMC5883L_getLockStatus:
 700              	.LFB51:
 325:.\hmc5883l.c  **** 
 326:.\hmc5883l.c  **** // STATUS register
ARM GAS  C:\Users\Sam\AppData\Local\Temp\ccJjUaFv.s 			page 19


 327:.\hmc5883l.c  **** 
 328:.\hmc5883l.c  **** /** Get data output register lock status.
 329:.\hmc5883l.c  ****  * This bit is set when this some but not all for of the six data output
 330:.\hmc5883l.c  ****  * registers have been read. When this bit is set, the six data output registers
 331:.\hmc5883l.c  ****  * are locked and any new data will not be placed in these register until one of
 332:.\hmc5883l.c  ****  * three conditions are met: one, all six bytes have been read or the mode
 333:.\hmc5883l.c  ****  * changed, two, the mode is changed, or three, the measurement configuration is
 334:.\hmc5883l.c  ****  * changed.
 335:.\hmc5883l.c  ****  * @return Data output register lock status
 336:.\hmc5883l.c  ****  * @see HMC5883L_RA_STATUS
 337:.\hmc5883l.c  ****  * @see HMC5883L_STATUS_LOCK_BIT
 338:.\hmc5883l.c  ****  */
 339:.\hmc5883l.c  **** bool HMC5883L_getLockStatus() {
 701              		.loc 1 339 0
 702              		.cfi_startproc
 703 0000 80B5     		push	{r7, lr}
 704              		.cfi_def_cfa_offset 8
 705              		.cfi_offset 7, -8
 706              		.cfi_offset 14, -4
 707 0002 00AF     		add	r7, sp, #0
 708              		.cfi_def_cfa_register 7
 340:.\hmc5883l.c  ****     //I2Cdev::readBit(devAddr, HMC5883L_RA_STATUS, HMC5883L_STATUS_LOCK_BIT, buffer);
 341:.\hmc5883l.c  ****     //return buffer[0];
 342:.\hmc5883l.c  **** }
 709              		.loc 1 342 0
 710 0004 181C     		mov	r0, r3
 711 0006 BD46     		mov	sp, r7
 712              		@ sp needed
 713 0008 80BD     		pop	{r7, pc}
 714              		.cfi_endproc
 715              	.LFE51:
 716              		.size	HMC5883L_getLockStatus, .-HMC5883L_getLockStatus
 717 000a C046     		.section	.text.HMC5883L_getReadyStatus,"ax",%progbits
 718              		.align	2
 719              		.global	HMC5883L_getReadyStatus
 720              		.code	16
 721              		.thumb_func
 722              		.type	HMC5883L_getReadyStatus, %function
 723              	HMC5883L_getReadyStatus:
 724              	.LFB52:
 343:.\hmc5883l.c  **** /** Get data ready status.
 344:.\hmc5883l.c  ****  * This bit is set when data is written to all six data registers, and cleared
 345:.\hmc5883l.c  ****  * when the device initiates a write to the data output registers and after one
 346:.\hmc5883l.c  ****  * or more of the data output registers are written to. When RDY bit is clear it
 347:.\hmc5883l.c  ****  * shall remain cleared for 250 us. DRDY pin can be used as an alternative to
 348:.\hmc5883l.c  ****  * the status register for monitoring the device for measurement data.
 349:.\hmc5883l.c  ****  * @return Data ready status
 350:.\hmc5883l.c  ****  * @see HMC5883L_RA_STATUS
 351:.\hmc5883l.c  ****  * @see HMC5883L_STATUS_READY_BIT
 352:.\hmc5883l.c  ****  */
 353:.\hmc5883l.c  **** bool HMC5883L_getReadyStatus() {
 725              		.loc 1 353 0
 726              		.cfi_startproc
 727 0000 80B5     		push	{r7, lr}
 728              		.cfi_def_cfa_offset 8
 729              		.cfi_offset 7, -8
 730              		.cfi_offset 14, -4
ARM GAS  C:\Users\Sam\AppData\Local\Temp\ccJjUaFv.s 			page 20


 731 0002 00AF     		add	r7, sp, #0
 732              		.cfi_def_cfa_register 7
 354:.\hmc5883l.c  ****     I2CReadBit(devAddr, HMC5883L_RA_STATUS, HMC5883L_STATUS_READY_BIT, buffer);
 733              		.loc 1 354 0
 734 0004 074B     		ldr	r3, .L54
 735 0006 1A78     		ldrb	r2, [r3]
 736 0008 074B     		ldr	r3, .L54+4
 737 000a 101C     		mov	r0, r2
 738 000c 0921     		mov	r1, #9
 739 000e 0022     		mov	r2, #0
 740 0010 FFF7FEFF 		bl	I2CReadBit
 355:.\hmc5883l.c  ****     return buffer[0];
 741              		.loc 1 355 0
 742 0014 044B     		ldr	r3, .L54+4
 743 0016 1B78     		ldrb	r3, [r3]
 744 0018 5A1E     		sub	r2, r3, #1
 745 001a 9341     		sbc	r3, r3, r2
 746 001c DBB2     		uxtb	r3, r3
 356:.\hmc5883l.c  **** }
 747              		.loc 1 356 0
 748 001e 181C     		mov	r0, r3
 749 0020 BD46     		mov	sp, r7
 750              		@ sp needed
 751 0022 80BD     		pop	{r7, pc}
 752              	.L55:
 753              		.align	2
 754              	.L54:
 755 0024 00000000 		.word	devAddr
 756 0028 00000000 		.word	buffer
 757              		.cfi_endproc
 758              	.LFE52:
 759              		.size	HMC5883L_getReadyStatus, .-HMC5883L_getReadyStatus
 760              		.section	.text.HMC5883L_getIDA,"ax",%progbits
 761              		.align	2
 762              		.global	HMC5883L_getIDA
 763              		.code	16
 764              		.thumb_func
 765              		.type	HMC5883L_getIDA, %function
 766              	HMC5883L_getIDA:
 767              	.LFB53:
 357:.\hmc5883l.c  **** 
 358:.\hmc5883l.c  **** // ID_* registers
 359:.\hmc5883l.c  **** 
 360:.\hmc5883l.c  **** /** Get identification byte A
 361:.\hmc5883l.c  ****  * @return ID_A byte (should be 01001000, ASCII value 'H')
 362:.\hmc5883l.c  ****  */
 363:.\hmc5883l.c  **** uint8_t HMC5883L_getIDA() {
 768              		.loc 1 363 0
 769              		.cfi_startproc
 770 0000 80B5     		push	{r7, lr}
 771              		.cfi_def_cfa_offset 8
 772              		.cfi_offset 7, -8
 773              		.cfi_offset 14, -4
 774 0002 00AF     		add	r7, sp, #0
 775              		.cfi_def_cfa_register 7
 364:.\hmc5883l.c  ****     I2CReadByte(devAddr, HMC5883L_RA_ID_A, buffer);
 776              		.loc 1 364 0
ARM GAS  C:\Users\Sam\AppData\Local\Temp\ccJjUaFv.s 			page 21


 777 0004 064B     		ldr	r3, .L58
 778 0006 1A78     		ldrb	r2, [r3]
 779 0008 064B     		ldr	r3, .L58+4
 780 000a 101C     		mov	r0, r2
 781 000c 0A21     		mov	r1, #10
 782 000e 1A1C     		mov	r2, r3
 783 0010 FFF7FEFF 		bl	I2CReadByte
 365:.\hmc5883l.c  ****     return buffer[0];
 784              		.loc 1 365 0
 785 0014 034B     		ldr	r3, .L58+4
 786 0016 1B78     		ldrb	r3, [r3]
 366:.\hmc5883l.c  **** }
 787              		.loc 1 366 0
 788 0018 181C     		mov	r0, r3
 789 001a BD46     		mov	sp, r7
 790              		@ sp needed
 791 001c 80BD     		pop	{r7, pc}
 792              	.L59:
 793 001e C046     		.align	2
 794              	.L58:
 795 0020 00000000 		.word	devAddr
 796 0024 00000000 		.word	buffer
 797              		.cfi_endproc
 798              	.LFE53:
 799              		.size	HMC5883L_getIDA, .-HMC5883L_getIDA
 800              		.section	.text.HMC5883L_getIDB,"ax",%progbits
 801              		.align	2
 802              		.global	HMC5883L_getIDB
 803              		.code	16
 804              		.thumb_func
 805              		.type	HMC5883L_getIDB, %function
 806              	HMC5883L_getIDB:
 807              	.LFB54:
 367:.\hmc5883l.c  **** /** Get identification byte B
 368:.\hmc5883l.c  ****  * @return ID_A byte (should be 00110100, ASCII value '4')
 369:.\hmc5883l.c  ****  */
 370:.\hmc5883l.c  **** uint8_t HMC5883L_getIDB() {
 808              		.loc 1 370 0
 809              		.cfi_startproc
 810 0000 80B5     		push	{r7, lr}
 811              		.cfi_def_cfa_offset 8
 812              		.cfi_offset 7, -8
 813              		.cfi_offset 14, -4
 814 0002 00AF     		add	r7, sp, #0
 815              		.cfi_def_cfa_register 7
 371:.\hmc5883l.c  ****     I2CReadByte(devAddr, HMC5883L_RA_ID_B, buffer);
 816              		.loc 1 371 0
 817 0004 064B     		ldr	r3, .L62
 818 0006 1A78     		ldrb	r2, [r3]
 819 0008 064B     		ldr	r3, .L62+4
 820 000a 101C     		mov	r0, r2
 821 000c 0B21     		mov	r1, #11
 822 000e 1A1C     		mov	r2, r3
 823 0010 FFF7FEFF 		bl	I2CReadByte
 372:.\hmc5883l.c  ****     return buffer[0];
 824              		.loc 1 372 0
 825 0014 034B     		ldr	r3, .L62+4
ARM GAS  C:\Users\Sam\AppData\Local\Temp\ccJjUaFv.s 			page 22


 826 0016 1B78     		ldrb	r3, [r3]
 373:.\hmc5883l.c  **** }
 827              		.loc 1 373 0
 828 0018 181C     		mov	r0, r3
 829 001a BD46     		mov	sp, r7
 830              		@ sp needed
 831 001c 80BD     		pop	{r7, pc}
 832              	.L63:
 833 001e C046     		.align	2
 834              	.L62:
 835 0020 00000000 		.word	devAddr
 836 0024 00000000 		.word	buffer
 837              		.cfi_endproc
 838              	.LFE54:
 839              		.size	HMC5883L_getIDB, .-HMC5883L_getIDB
 840              		.section	.text.HMC5883L_getIDC,"ax",%progbits
 841              		.align	2
 842              		.global	HMC5883L_getIDC
 843              		.code	16
 844              		.thumb_func
 845              		.type	HMC5883L_getIDC, %function
 846              	HMC5883L_getIDC:
 847              	.LFB55:
 374:.\hmc5883l.c  **** /** Get identification byte C
 375:.\hmc5883l.c  ****  * @return ID_A byte (should be 00110011, ASCII value '3')
 376:.\hmc5883l.c  ****  */
 377:.\hmc5883l.c  **** uint8_t HMC5883L_getIDC() {
 848              		.loc 1 377 0
 849              		.cfi_startproc
 850 0000 80B5     		push	{r7, lr}
 851              		.cfi_def_cfa_offset 8
 852              		.cfi_offset 7, -8
 853              		.cfi_offset 14, -4
 854 0002 00AF     		add	r7, sp, #0
 855              		.cfi_def_cfa_register 7
 378:.\hmc5883l.c  ****     I2CReadByte(devAddr, HMC5883L_RA_ID_C, buffer);
 856              		.loc 1 378 0
 857 0004 064B     		ldr	r3, .L66
 858 0006 1A78     		ldrb	r2, [r3]
 859 0008 064B     		ldr	r3, .L66+4
 860 000a 101C     		mov	r0, r2
 861 000c 0C21     		mov	r1, #12
 862 000e 1A1C     		mov	r2, r3
 863 0010 FFF7FEFF 		bl	I2CReadByte
 379:.\hmc5883l.c  ****     return buffer[0];
 864              		.loc 1 379 0
 865 0014 034B     		ldr	r3, .L66+4
 866 0016 1B78     		ldrb	r3, [r3]
 380:.\hmc5883l.c  **** }
 867              		.loc 1 380 0
 868 0018 181C     		mov	r0, r3
 869 001a BD46     		mov	sp, r7
 870              		@ sp needed
 871 001c 80BD     		pop	{r7, pc}
 872              	.L67:
 873 001e C046     		.align	2
 874              	.L66:
ARM GAS  C:\Users\Sam\AppData\Local\Temp\ccJjUaFv.s 			page 23


 875 0020 00000000 		.word	devAddr
 876 0024 00000000 		.word	buffer
 877              		.cfi_endproc
 878              	.LFE55:
 879              		.size	HMC5883L_getIDC, .-HMC5883L_getIDC
 880              		.text
 881              	.Letext0:
 882              		.file 2 "c:\\program files (x86)\\cypress\\psoc creator\\3.1\\psoc creator\\import\\gnu_cs\\arm\\4
 883              		.file 3 "c:\\program files (x86)\\cypress\\psoc creator\\3.1\\psoc creator\\import\\gnu_cs\\arm\\4
 884              		.file 4 ".\\hmc5883l.h"
 885              		.section	.debug_info,"",%progbits
 886              	.Ldebug_info0:
 887 0000 6F030000 		.4byte	0x36f
 888 0004 0400     		.2byte	0x4
 889 0006 00000000 		.4byte	.Ldebug_abbrev0
 890 000a 04       		.byte	0x4
 891 000b 01       		.uleb128 0x1
 892 000c 16010000 		.4byte	.LASF49
 893 0010 01       		.byte	0x1
 894 0011 13030000 		.4byte	.LASF50
 895 0015 69000000 		.4byte	.LASF51
 896 0019 00000000 		.4byte	.Ldebug_ranges0+0
 897 001d 00000000 		.4byte	0
 898 0021 00000000 		.4byte	.Ldebug_line0
 899 0025 02       		.uleb128 0x2
 900 0026 01       		.byte	0x1
 901 0027 06       		.byte	0x6
 902 0028 89030000 		.4byte	.LASF0
 903 002c 03       		.uleb128 0x3
 904 002d 00000000 		.4byte	.LASF2
 905 0031 02       		.byte	0x2
 906 0032 1C       		.byte	0x1c
 907 0033 37000000 		.4byte	0x37
 908 0037 02       		.uleb128 0x2
 909 0038 01       		.byte	0x1
 910 0039 08       		.byte	0x8
 911 003a A3010000 		.4byte	.LASF1
 912 003e 03       		.uleb128 0x3
 913 003f 61020000 		.4byte	.LASF3
 914 0043 02       		.byte	0x2
 915 0044 25       		.byte	0x25
 916 0045 49000000 		.4byte	0x49
 917 0049 02       		.uleb128 0x2
 918 004a 02       		.byte	0x2
 919 004b 05       		.byte	0x5
 920 004c 20030000 		.4byte	.LASF4
 921 0050 02       		.uleb128 0x2
 922 0051 02       		.byte	0x2
 923 0052 07       		.byte	0x7
 924 0053 EC010000 		.4byte	.LASF5
 925 0057 02       		.uleb128 0x2
 926 0058 04       		.byte	0x4
 927 0059 05       		.byte	0x5
 928 005a 6F030000 		.4byte	.LASF6
 929 005e 02       		.uleb128 0x2
 930 005f 04       		.byte	0x4
 931 0060 07       		.byte	0x7
ARM GAS  C:\Users\Sam\AppData\Local\Temp\ccJjUaFv.s 			page 24


 932 0061 C2010000 		.4byte	.LASF7
 933 0065 02       		.uleb128 0x2
 934 0066 08       		.byte	0x8
 935 0067 05       		.byte	0x5
 936 0068 EC020000 		.4byte	.LASF8
 937 006c 02       		.uleb128 0x2
 938 006d 08       		.byte	0x8
 939 006e 07       		.byte	0x7
 940 006f 80020000 		.4byte	.LASF9
 941 0073 04       		.uleb128 0x4
 942 0074 04       		.byte	0x4
 943 0075 05       		.byte	0x5
 944 0076 696E7400 		.ascii	"int\000"
 945 007a 02       		.uleb128 0x2
 946 007b 04       		.byte	0x4
 947 007c 07       		.byte	0x7
 948 007d 6B020000 		.4byte	.LASF10
 949 0081 03       		.uleb128 0x3
 950 0082 97020000 		.4byte	.LASF11
 951 0086 03       		.byte	0x3
 952 0087 2A       		.byte	0x2a
 953 0088 2C000000 		.4byte	0x2c
 954 008c 03       		.uleb128 0x3
 955 008d AE020000 		.4byte	.LASF12
 956 0091 03       		.byte	0x3
 957 0092 35       		.byte	0x35
 958 0093 3E000000 		.4byte	0x3e
 959 0097 02       		.uleb128 0x2
 960 0098 04       		.byte	0x4
 961 0099 04       		.byte	0x4
 962 009a 10010000 		.4byte	.LASF13
 963 009e 02       		.uleb128 0x2
 964 009f 08       		.byte	0x8
 965 00a0 04       		.byte	0x4
 966 00a1 29020000 		.4byte	.LASF14
 967 00a5 02       		.uleb128 0x2
 968 00a6 01       		.byte	0x1
 969 00a7 08       		.byte	0x8
 970 00a8 78030000 		.4byte	.LASF15
 971 00ac 02       		.uleb128 0x2
 972 00ad 04       		.byte	0x4
 973 00ae 07       		.byte	0x7
 974 00af D2020000 		.4byte	.LASF16
 975 00b3 02       		.uleb128 0x2
 976 00b4 08       		.byte	0x8
 977 00b5 04       		.byte	0x4
 978 00b6 7D030000 		.4byte	.LASF17
 979 00ba 05       		.uleb128 0x5
 980 00bb 1B020000 		.4byte	.LASF18
 981 00bf 01       		.byte	0x1
 982 00c0 2A       		.byte	0x2a
 983 00c1 00000000 		.4byte	.LFB33
 984 00c5 14000000 		.4byte	.LFE33-.LFB33
 985 00c9 01       		.uleb128 0x1
 986 00ca 9C       		.byte	0x9c
 987 00cb 06       		.uleb128 0x6
 988 00cc 55030000 		.4byte	.LASF22
ARM GAS  C:\Users\Sam\AppData\Local\Temp\ccJjUaFv.s 			page 25


 989 00d0 01       		.byte	0x1
 990 00d1 33       		.byte	0x33
 991 00d2 00000000 		.4byte	.LFB34
 992 00d6 20000000 		.4byte	.LFE34-.LFB34
 993 00da 01       		.uleb128 0x1
 994 00db 9C       		.byte	0x9c
 995 00dc EF000000 		.4byte	0xef
 996 00e0 07       		.uleb128 0x7
 997 00e1 78020000 		.4byte	.LASF24
 998 00e5 01       		.byte	0x1
 999 00e6 33       		.byte	0x33
 1000 00e7 81000000 		.4byte	0x81
 1001 00eb 02       		.uleb128 0x2
 1002 00ec 91       		.byte	0x91
 1003 00ed 77       		.sleb128 -9
 1004 00ee 00       		.byte	0
 1005 00ef 08       		.uleb128 0x8
 1006 00f0 10000000 		.4byte	.LASF52
 1007 00f4 01       		.byte	0x1
 1008 00f5 3F       		.byte	0x3f
 1009 00f6 00000000 		.4byte	.LFB35
 1010 00fa 28000000 		.4byte	.LFE35-.LFB35
 1011 00fe 01       		.uleb128 0x1
 1012 00ff 9C       		.byte	0x9c
 1013 0100 09       		.uleb128 0x9
 1014 0101 D8000000 		.4byte	.LASF19
 1015 0105 01       		.byte	0x1
 1016 0106 51       		.byte	0x51
 1017 0107 15010000 		.4byte	0x115
 1018 010b 00000000 		.4byte	.LFB36
 1019 010f 40000000 		.4byte	.LFE36-.LFB36
 1020 0113 01       		.uleb128 0x1
 1021 0114 9C       		.byte	0x9c
 1022 0115 02       		.uleb128 0x2
 1023 0116 01       		.byte	0x1
 1024 0117 02       		.byte	0x2
 1025 0118 0A000000 		.4byte	.LASF20
 1026 011c 0A       		.uleb128 0xa
 1027 011d FF010000 		.4byte	.LASF21
 1028 0121 01       		.byte	0x1
 1029 0122 6C       		.byte	0x6c
 1030 0123 81000000 		.4byte	0x81
 1031 0127 00000000 		.4byte	.LFB37
 1032 012b 14000000 		.4byte	.LFE37-.LFB37
 1033 012f 01       		.uleb128 0x1
 1034 0130 9C       		.byte	0x9c
 1035 0131 06       		.uleb128 0x6
 1036 0132 B6020000 		.4byte	.LASF23
 1037 0136 01       		.byte	0x1
 1038 0137 76       		.byte	0x76
 1039 0138 00000000 		.4byte	.LFB38
 1040 013c 14000000 		.4byte	.LFE38-.LFB38
 1041 0140 01       		.uleb128 0x1
 1042 0141 9C       		.byte	0x9c
 1043 0142 55010000 		.4byte	0x155
 1044 0146 07       		.uleb128 0x7
 1045 0147 9F020000 		.4byte	.LASF25
ARM GAS  C:\Users\Sam\AppData\Local\Temp\ccJjUaFv.s 			page 26


 1046 014b 01       		.byte	0x1
 1047 014c 76       		.byte	0x76
 1048 014d 81000000 		.4byte	0x81
 1049 0151 02       		.uleb128 0x2
 1050 0152 91       		.byte	0x91
 1051 0153 77       		.sleb128 -9
 1052 0154 00       		.byte	0
 1053 0155 0A       		.uleb128 0xa
 1054 0156 BE000000 		.4byte	.LASF26
 1055 015a 01       		.byte	0x1
 1056 015b 91       		.byte	0x91
 1057 015c 81000000 		.4byte	0x81
 1058 0160 00000000 		.4byte	.LFB39
 1059 0164 14000000 		.4byte	.LFE39-.LFB39
 1060 0168 01       		.uleb128 0x1
 1061 0169 9C       		.byte	0x9c
 1062 016a 06       		.uleb128 0x6
 1063 016b 30020000 		.4byte	.LASF27
 1064 016f 01       		.byte	0x1
 1065 0170 9D       		.byte	0x9d
 1066 0171 00000000 		.4byte	.LFB40
 1067 0175 12000000 		.4byte	.LFE40-.LFB40
 1068 0179 01       		.uleb128 0x1
 1069 017a 9C       		.byte	0x9c
 1070 017b 8E010000 		.4byte	0x18e
 1071 017f 07       		.uleb128 0x7
 1072 0180 64000000 		.4byte	.LASF28
 1073 0184 01       		.byte	0x1
 1074 0185 9D       		.byte	0x9d
 1075 0186 81000000 		.4byte	0x81
 1076 018a 02       		.uleb128 0x2
 1077 018b 91       		.byte	0x91
 1078 018c 77       		.sleb128 -9
 1079 018d 00       		.byte	0
 1080 018e 0A       		.uleb128 0xa
 1081 018f 45020000 		.4byte	.LASF29
 1082 0193 01       		.byte	0x1
 1083 0194 A7       		.byte	0xa7
 1084 0195 81000000 		.4byte	0x81
 1085 0199 00000000 		.4byte	.LFB41
 1086 019d 14000000 		.4byte	.LFE41-.LFB41
 1087 01a1 01       		.uleb128 0x1
 1088 01a2 9C       		.byte	0x9c
 1089 01a3 06       		.uleb128 0x6
 1090 01a4 39030000 		.4byte	.LASF30
 1091 01a8 01       		.byte	0x1
 1092 01a9 B2       		.byte	0xb2
 1093 01aa 00000000 		.4byte	.LFB42
 1094 01ae 14000000 		.4byte	.LFE42-.LFB42
 1095 01b2 01       		.uleb128 0x1
 1096 01b3 9C       		.byte	0x9c
 1097 01b4 C7010000 		.4byte	0x1c7
 1098 01b8 07       		.uleb128 0x7
 1099 01b9 FA020000 		.4byte	.LASF31
 1100 01bd 01       		.byte	0x1
 1101 01be B2       		.byte	0xb2
 1102 01bf 81000000 		.4byte	0x81
ARM GAS  C:\Users\Sam\AppData\Local\Temp\ccJjUaFv.s 			page 27


 1103 01c3 02       		.uleb128 0x2
 1104 01c4 91       		.byte	0x91
 1105 01c5 77       		.sleb128 -9
 1106 01c6 00       		.byte	0
 1107 01c7 0A       		.uleb128 0xa
 1108 01c8 53000000 		.4byte	.LASF32
 1109 01cc 01       		.byte	0x1
 1110 01cd D0       		.byte	0xd0
 1111 01ce 81000000 		.4byte	0x81
 1112 01d2 00000000 		.4byte	.LFB43
 1113 01d6 14000000 		.4byte	.LFE43-.LFB43
 1114 01da 01       		.uleb128 0x1
 1115 01db 9C       		.byte	0x9c
 1116 01dc 0B       		.uleb128 0xb
 1117 01dd 92010000 		.4byte	.LASF33
 1118 01e1 01       		.byte	0x1
 1119 01e2 DB       		.byte	0xdb
 1120 01e3 00000000 		.4byte	.LFB44
 1121 01e7 2C000000 		.4byte	.LFE44-.LFB44
 1122 01eb 01       		.uleb128 0x1
 1123 01ec 9C       		.byte	0x9c
 1124 01ed 00020000 		.4byte	0x200
 1125 01f1 07       		.uleb128 0x7
 1126 01f2 D3000000 		.4byte	.LASF34
 1127 01f6 01       		.byte	0x1
 1128 01f7 DB       		.byte	0xdb
 1129 01f8 81000000 		.4byte	0x81
 1130 01fc 02       		.uleb128 0x2
 1131 01fd 91       		.byte	0x91
 1132 01fe 77       		.sleb128 -9
 1133 01ff 00       		.byte	0
 1134 0200 0C       		.uleb128 0xc
 1135 0201 B1010000 		.4byte	.LASF53
 1136 0205 01       		.byte	0x1
 1137 0206 FA       		.byte	0xfa
 1138 0207 81000000 		.4byte	0x81
 1139 020b 00000000 		.4byte	.LFB45
 1140 020f 14000000 		.4byte	.LFE45-.LFB45
 1141 0213 01       		.uleb128 0x1
 1142 0214 9C       		.byte	0x9c
 1143 0215 0D       		.uleb128 0xd
 1144 0216 DB020000 		.4byte	.LASF35
 1145 021a 01       		.byte	0x1
 1146 021b 0801     		.2byte	0x108
 1147 021d 00000000 		.4byte	.LFB46
 1148 0221 34000000 		.4byte	.LFE46-.LFB46
 1149 0225 01       		.uleb128 0x1
 1150 0226 9C       		.byte	0x9c
 1151 0227 3B020000 		.4byte	0x23b
 1152 022b 0E       		.uleb128 0xe
 1153 022c 4B000000 		.4byte	.LASF36
 1154 0230 01       		.byte	0x1
 1155 0231 0801     		.2byte	0x108
 1156 0233 81000000 		.4byte	0x81
 1157 0237 02       		.uleb128 0x2
 1158 0238 91       		.byte	0x91
 1159 0239 77       		.sleb128 -9
ARM GAS  C:\Users\Sam\AppData\Local\Temp\ccJjUaFv.s 			page 28


 1160 023a 00       		.byte	0
 1161 023b 0D       		.uleb128 0xd
 1162 023c FF020000 		.4byte	.LASF37
 1163 0240 01       		.byte	0x1
 1164 0241 1D01     		.2byte	0x11d
 1165 0243 00000000 		.4byte	.LFB47
 1166 0247 80000000 		.4byte	.LFE47-.LFB47
 1167 024b 01       		.uleb128 0x1
 1168 024c 9C       		.byte	0x9c
 1169 024d 79020000 		.4byte	0x279
 1170 0251 0F       		.uleb128 0xf
 1171 0252 7800     		.ascii	"x\000"
 1172 0254 01       		.byte	0x1
 1173 0255 1D01     		.2byte	0x11d
 1174 0257 79020000 		.4byte	0x279
 1175 025b 02       		.uleb128 0x2
 1176 025c 91       		.byte	0x91
 1177 025d 74       		.sleb128 -12
 1178 025e 0F       		.uleb128 0xf
 1179 025f 7900     		.ascii	"y\000"
 1180 0261 01       		.byte	0x1
 1181 0262 1D01     		.2byte	0x11d
 1182 0264 79020000 		.4byte	0x279
 1183 0268 02       		.uleb128 0x2
 1184 0269 91       		.byte	0x91
 1185 026a 70       		.sleb128 -16
 1186 026b 0F       		.uleb128 0xf
 1187 026c 7A00     		.ascii	"z\000"
 1188 026e 01       		.byte	0x1
 1189 026f 1D01     		.2byte	0x11d
 1190 0271 79020000 		.4byte	0x279
 1191 0275 02       		.uleb128 0x2
 1192 0276 91       		.byte	0x91
 1193 0277 6C       		.sleb128 -20
 1194 0278 00       		.byte	0
 1195 0279 10       		.uleb128 0x10
 1196 027a 04       		.byte	0x4
 1197 027b 8C000000 		.4byte	0x8c
 1198 027f 11       		.uleb128 0x11
 1199 0280 95030000 		.4byte	.LASF38
 1200 0284 01       		.byte	0x1
 1201 0285 2801     		.2byte	0x128
 1202 0287 8C000000 		.4byte	0x8c
 1203 028b 00000000 		.4byte	.LFB48
 1204 028f 0A000000 		.4byte	.LFE48-.LFB48
 1205 0293 01       		.uleb128 0x1
 1206 0294 9C       		.byte	0x9c
 1207 0295 11       		.uleb128 0x11
 1208 0296 AA030000 		.4byte	.LASF39
 1209 029a 01       		.byte	0x1
 1210 029b 3301     		.2byte	0x133
 1211 029d 8C000000 		.4byte	0x8c
 1212 02a1 00000000 		.4byte	.LFB49
 1213 02a5 0A000000 		.4byte	.LFE49-.LFB49
 1214 02a9 01       		.uleb128 0x1
 1215 02aa 9C       		.byte	0x9c
 1216 02ab 11       		.uleb128 0x11
ARM GAS  C:\Users\Sam\AppData\Local\Temp\ccJjUaFv.s 			page 29


 1217 02ac BF030000 		.4byte	.LASF40
 1218 02b0 01       		.byte	0x1
 1219 02b1 3E01     		.2byte	0x13e
 1220 02b3 8C000000 		.4byte	0x8c
 1221 02b7 00000000 		.4byte	.LFB50
 1222 02bb 0A000000 		.4byte	.LFE50-.LFB50
 1223 02bf 01       		.uleb128 0x1
 1224 02c0 9C       		.byte	0x9c
 1225 02c1 11       		.uleb128 0x11
 1226 02c2 34000000 		.4byte	.LASF41
 1227 02c6 01       		.byte	0x1
 1228 02c7 5301     		.2byte	0x153
 1229 02c9 15010000 		.4byte	0x115
 1230 02cd 00000000 		.4byte	.LFB51
 1231 02d1 0A000000 		.4byte	.LFE51-.LFB51
 1232 02d5 01       		.uleb128 0x1
 1233 02d6 9C       		.byte	0x9c
 1234 02d7 12       		.uleb128 0x12
 1235 02d8 D4010000 		.4byte	.LASF42
 1236 02dc 01       		.byte	0x1
 1237 02dd 6101     		.2byte	0x161
 1238 02df 15010000 		.4byte	0x115
 1239 02e3 00000000 		.4byte	.LFB52
 1240 02e7 2C000000 		.4byte	.LFE52-.LFB52
 1241 02eb 01       		.uleb128 0x1
 1242 02ec 9C       		.byte	0x9c
 1243 02ed 12       		.uleb128 0x12
 1244 02ee F0000000 		.4byte	.LASF43
 1245 02f2 01       		.byte	0x1
 1246 02f3 6B01     		.2byte	0x16b
 1247 02f5 81000000 		.4byte	0x81
 1248 02f9 00000000 		.4byte	.LFB53
 1249 02fd 28000000 		.4byte	.LFE53-.LFB53
 1250 0301 01       		.uleb128 0x1
 1251 0302 9C       		.byte	0x9c
 1252 0303 12       		.uleb128 0x12
 1253 0304 00010000 		.4byte	.LASF44
 1254 0308 01       		.byte	0x1
 1255 0309 7201     		.2byte	0x172
 1256 030b 81000000 		.4byte	0x81
 1257 030f 00000000 		.4byte	.LFB54
 1258 0313 28000000 		.4byte	.LFE54-.LFB54
 1259 0317 01       		.uleb128 0x1
 1260 0318 9C       		.byte	0x9c
 1261 0319 12       		.uleb128 0x12
 1262 031a 24000000 		.4byte	.LASF45
 1263 031e 01       		.byte	0x1
 1264 031f 7901     		.2byte	0x179
 1265 0321 81000000 		.4byte	0x81
 1266 0325 00000000 		.4byte	.LFB55
 1267 0329 28000000 		.4byte	.LFE55-.LFB55
 1268 032d 01       		.uleb128 0x1
 1269 032e 9C       		.byte	0x9c
 1270 032f 13       		.uleb128 0x13
 1271 0330 2A030000 		.4byte	.LASF46
 1272 0334 04       		.byte	0x4
 1273 0335 90       		.byte	0x90
ARM GAS  C:\Users\Sam\AppData\Local\Temp\ccJjUaFv.s 			page 30


 1274 0336 81000000 		.4byte	0x81
 1275 033a 05       		.uleb128 0x5
 1276 033b 03       		.byte	0x3
 1277 033c 00000000 		.4byte	devAddr
 1278 0340 14       		.uleb128 0x14
 1279 0341 81000000 		.4byte	0x81
 1280 0345 50030000 		.4byte	0x350
 1281 0349 15       		.uleb128 0x15
 1282 034a AC000000 		.4byte	0xac
 1283 034e 05       		.byte	0x5
 1284 034f 00       		.byte	0
 1285 0350 13       		.uleb128 0x13
 1286 0351 32030000 		.4byte	.LASF47
 1287 0355 04       		.byte	0x4
 1288 0356 91       		.byte	0x91
 1289 0357 40030000 		.4byte	0x340
 1290 035b 05       		.uleb128 0x5
 1291 035c 03       		.byte	0x3
 1292 035d 00000000 		.4byte	buffer
 1293 0361 13       		.uleb128 0x13
 1294 0362 A9020000 		.4byte	.LASF48
 1295 0366 04       		.byte	0x4
 1296 0367 92       		.byte	0x92
 1297 0368 81000000 		.4byte	0x81
 1298 036c 05       		.uleb128 0x5
 1299 036d 03       		.byte	0x3
 1300 036e 00000000 		.4byte	mode
 1301 0372 00       		.byte	0
 1302              		.section	.debug_abbrev,"",%progbits
 1303              	.Ldebug_abbrev0:
 1304 0000 01       		.uleb128 0x1
 1305 0001 11       		.uleb128 0x11
 1306 0002 01       		.byte	0x1
 1307 0003 25       		.uleb128 0x25
 1308 0004 0E       		.uleb128 0xe
 1309 0005 13       		.uleb128 0x13
 1310 0006 0B       		.uleb128 0xb
 1311 0007 03       		.uleb128 0x3
 1312 0008 0E       		.uleb128 0xe
 1313 0009 1B       		.uleb128 0x1b
 1314 000a 0E       		.uleb128 0xe
 1315 000b 55       		.uleb128 0x55
 1316 000c 17       		.uleb128 0x17
 1317 000d 11       		.uleb128 0x11
 1318 000e 01       		.uleb128 0x1
 1319 000f 10       		.uleb128 0x10
 1320 0010 17       		.uleb128 0x17
 1321 0011 00       		.byte	0
 1322 0012 00       		.byte	0
 1323 0013 02       		.uleb128 0x2
 1324 0014 24       		.uleb128 0x24
 1325 0015 00       		.byte	0
 1326 0016 0B       		.uleb128 0xb
 1327 0017 0B       		.uleb128 0xb
 1328 0018 3E       		.uleb128 0x3e
 1329 0019 0B       		.uleb128 0xb
 1330 001a 03       		.uleb128 0x3
ARM GAS  C:\Users\Sam\AppData\Local\Temp\ccJjUaFv.s 			page 31


 1331 001b 0E       		.uleb128 0xe
 1332 001c 00       		.byte	0
 1333 001d 00       		.byte	0
 1334 001e 03       		.uleb128 0x3
 1335 001f 16       		.uleb128 0x16
 1336 0020 00       		.byte	0
 1337 0021 03       		.uleb128 0x3
 1338 0022 0E       		.uleb128 0xe
 1339 0023 3A       		.uleb128 0x3a
 1340 0024 0B       		.uleb128 0xb
 1341 0025 3B       		.uleb128 0x3b
 1342 0026 0B       		.uleb128 0xb
 1343 0027 49       		.uleb128 0x49
 1344 0028 13       		.uleb128 0x13
 1345 0029 00       		.byte	0
 1346 002a 00       		.byte	0
 1347 002b 04       		.uleb128 0x4
 1348 002c 24       		.uleb128 0x24
 1349 002d 00       		.byte	0
 1350 002e 0B       		.uleb128 0xb
 1351 002f 0B       		.uleb128 0xb
 1352 0030 3E       		.uleb128 0x3e
 1353 0031 0B       		.uleb128 0xb
 1354 0032 03       		.uleb128 0x3
 1355 0033 08       		.uleb128 0x8
 1356 0034 00       		.byte	0
 1357 0035 00       		.byte	0
 1358 0036 05       		.uleb128 0x5
 1359 0037 2E       		.uleb128 0x2e
 1360 0038 00       		.byte	0
 1361 0039 3F       		.uleb128 0x3f
 1362 003a 19       		.uleb128 0x19
 1363 003b 03       		.uleb128 0x3
 1364 003c 0E       		.uleb128 0xe
 1365 003d 3A       		.uleb128 0x3a
 1366 003e 0B       		.uleb128 0xb
 1367 003f 3B       		.uleb128 0x3b
 1368 0040 0B       		.uleb128 0xb
 1369 0041 27       		.uleb128 0x27
 1370 0042 19       		.uleb128 0x19
 1371 0043 11       		.uleb128 0x11
 1372 0044 01       		.uleb128 0x1
 1373 0045 12       		.uleb128 0x12
 1374 0046 06       		.uleb128 0x6
 1375 0047 40       		.uleb128 0x40
 1376 0048 18       		.uleb128 0x18
 1377 0049 9742     		.uleb128 0x2117
 1378 004b 19       		.uleb128 0x19
 1379 004c 00       		.byte	0
 1380 004d 00       		.byte	0
 1381 004e 06       		.uleb128 0x6
 1382 004f 2E       		.uleb128 0x2e
 1383 0050 01       		.byte	0x1
 1384 0051 3F       		.uleb128 0x3f
 1385 0052 19       		.uleb128 0x19
 1386 0053 03       		.uleb128 0x3
 1387 0054 0E       		.uleb128 0xe
ARM GAS  C:\Users\Sam\AppData\Local\Temp\ccJjUaFv.s 			page 32


 1388 0055 3A       		.uleb128 0x3a
 1389 0056 0B       		.uleb128 0xb
 1390 0057 3B       		.uleb128 0x3b
 1391 0058 0B       		.uleb128 0xb
 1392 0059 27       		.uleb128 0x27
 1393 005a 19       		.uleb128 0x19
 1394 005b 11       		.uleb128 0x11
 1395 005c 01       		.uleb128 0x1
 1396 005d 12       		.uleb128 0x12
 1397 005e 06       		.uleb128 0x6
 1398 005f 40       		.uleb128 0x40
 1399 0060 18       		.uleb128 0x18
 1400 0061 9742     		.uleb128 0x2117
 1401 0063 19       		.uleb128 0x19
 1402 0064 01       		.uleb128 0x1
 1403 0065 13       		.uleb128 0x13
 1404 0066 00       		.byte	0
 1405 0067 00       		.byte	0
 1406 0068 07       		.uleb128 0x7
 1407 0069 05       		.uleb128 0x5
 1408 006a 00       		.byte	0
 1409 006b 03       		.uleb128 0x3
 1410 006c 0E       		.uleb128 0xe
 1411 006d 3A       		.uleb128 0x3a
 1412 006e 0B       		.uleb128 0xb
 1413 006f 3B       		.uleb128 0x3b
 1414 0070 0B       		.uleb128 0xb
 1415 0071 49       		.uleb128 0x49
 1416 0072 13       		.uleb128 0x13
 1417 0073 02       		.uleb128 0x2
 1418 0074 18       		.uleb128 0x18
 1419 0075 00       		.byte	0
 1420 0076 00       		.byte	0
 1421 0077 08       		.uleb128 0x8
 1422 0078 2E       		.uleb128 0x2e
 1423 0079 00       		.byte	0
 1424 007a 3F       		.uleb128 0x3f
 1425 007b 19       		.uleb128 0x19
 1426 007c 03       		.uleb128 0x3
 1427 007d 0E       		.uleb128 0xe
 1428 007e 3A       		.uleb128 0x3a
 1429 007f 0B       		.uleb128 0xb
 1430 0080 3B       		.uleb128 0x3b
 1431 0081 0B       		.uleb128 0xb
 1432 0082 11       		.uleb128 0x11
 1433 0083 01       		.uleb128 0x1
 1434 0084 12       		.uleb128 0x12
 1435 0085 06       		.uleb128 0x6
 1436 0086 40       		.uleb128 0x40
 1437 0087 18       		.uleb128 0x18
 1438 0088 9642     		.uleb128 0x2116
 1439 008a 19       		.uleb128 0x19
 1440 008b 00       		.byte	0
 1441 008c 00       		.byte	0
 1442 008d 09       		.uleb128 0x9
 1443 008e 2E       		.uleb128 0x2e
 1444 008f 00       		.byte	0
ARM GAS  C:\Users\Sam\AppData\Local\Temp\ccJjUaFv.s 			page 33


 1445 0090 3F       		.uleb128 0x3f
 1446 0091 19       		.uleb128 0x19
 1447 0092 03       		.uleb128 0x3
 1448 0093 0E       		.uleb128 0xe
 1449 0094 3A       		.uleb128 0x3a
 1450 0095 0B       		.uleb128 0xb
 1451 0096 3B       		.uleb128 0x3b
 1452 0097 0B       		.uleb128 0xb
 1453 0098 49       		.uleb128 0x49
 1454 0099 13       		.uleb128 0x13
 1455 009a 11       		.uleb128 0x11
 1456 009b 01       		.uleb128 0x1
 1457 009c 12       		.uleb128 0x12
 1458 009d 06       		.uleb128 0x6
 1459 009e 40       		.uleb128 0x40
 1460 009f 18       		.uleb128 0x18
 1461 00a0 9642     		.uleb128 0x2116
 1462 00a2 19       		.uleb128 0x19
 1463 00a3 00       		.byte	0
 1464 00a4 00       		.byte	0
 1465 00a5 0A       		.uleb128 0xa
 1466 00a6 2E       		.uleb128 0x2e
 1467 00a7 00       		.byte	0
 1468 00a8 3F       		.uleb128 0x3f
 1469 00a9 19       		.uleb128 0x19
 1470 00aa 03       		.uleb128 0x3
 1471 00ab 0E       		.uleb128 0xe
 1472 00ac 3A       		.uleb128 0x3a
 1473 00ad 0B       		.uleb128 0xb
 1474 00ae 3B       		.uleb128 0x3b
 1475 00af 0B       		.uleb128 0xb
 1476 00b0 49       		.uleb128 0x49
 1477 00b1 13       		.uleb128 0x13
 1478 00b2 11       		.uleb128 0x11
 1479 00b3 01       		.uleb128 0x1
 1480 00b4 12       		.uleb128 0x12
 1481 00b5 06       		.uleb128 0x6
 1482 00b6 40       		.uleb128 0x40
 1483 00b7 18       		.uleb128 0x18
 1484 00b8 9742     		.uleb128 0x2117
 1485 00ba 19       		.uleb128 0x19
 1486 00bb 00       		.byte	0
 1487 00bc 00       		.byte	0
 1488 00bd 0B       		.uleb128 0xb
 1489 00be 2E       		.uleb128 0x2e
 1490 00bf 01       		.byte	0x1
 1491 00c0 3F       		.uleb128 0x3f
 1492 00c1 19       		.uleb128 0x19
 1493 00c2 03       		.uleb128 0x3
 1494 00c3 0E       		.uleb128 0xe
 1495 00c4 3A       		.uleb128 0x3a
 1496 00c5 0B       		.uleb128 0xb
 1497 00c6 3B       		.uleb128 0x3b
 1498 00c7 0B       		.uleb128 0xb
 1499 00c8 27       		.uleb128 0x27
 1500 00c9 19       		.uleb128 0x19
 1501 00ca 11       		.uleb128 0x11
ARM GAS  C:\Users\Sam\AppData\Local\Temp\ccJjUaFv.s 			page 34


 1502 00cb 01       		.uleb128 0x1
 1503 00cc 12       		.uleb128 0x12
 1504 00cd 06       		.uleb128 0x6
 1505 00ce 40       		.uleb128 0x40
 1506 00cf 18       		.uleb128 0x18
 1507 00d0 9642     		.uleb128 0x2116
 1508 00d2 19       		.uleb128 0x19
 1509 00d3 01       		.uleb128 0x1
 1510 00d4 13       		.uleb128 0x13
 1511 00d5 00       		.byte	0
 1512 00d6 00       		.byte	0
 1513 00d7 0C       		.uleb128 0xc
 1514 00d8 2E       		.uleb128 0x2e
 1515 00d9 00       		.byte	0
 1516 00da 3F       		.uleb128 0x3f
 1517 00db 19       		.uleb128 0x19
 1518 00dc 03       		.uleb128 0x3
 1519 00dd 0E       		.uleb128 0xe
 1520 00de 3A       		.uleb128 0x3a
 1521 00df 0B       		.uleb128 0xb
 1522 00e0 3B       		.uleb128 0x3b
 1523 00e1 0B       		.uleb128 0xb
 1524 00e2 27       		.uleb128 0x27
 1525 00e3 19       		.uleb128 0x19
 1526 00e4 49       		.uleb128 0x49
 1527 00e5 13       		.uleb128 0x13
 1528 00e6 11       		.uleb128 0x11
 1529 00e7 01       		.uleb128 0x1
 1530 00e8 12       		.uleb128 0x12
 1531 00e9 06       		.uleb128 0x6
 1532 00ea 40       		.uleb128 0x40
 1533 00eb 18       		.uleb128 0x18
 1534 00ec 9742     		.uleb128 0x2117
 1535 00ee 19       		.uleb128 0x19
 1536 00ef 00       		.byte	0
 1537 00f0 00       		.byte	0
 1538 00f1 0D       		.uleb128 0xd
 1539 00f2 2E       		.uleb128 0x2e
 1540 00f3 01       		.byte	0x1
 1541 00f4 3F       		.uleb128 0x3f
 1542 00f5 19       		.uleb128 0x19
 1543 00f6 03       		.uleb128 0x3
 1544 00f7 0E       		.uleb128 0xe
 1545 00f8 3A       		.uleb128 0x3a
 1546 00f9 0B       		.uleb128 0xb
 1547 00fa 3B       		.uleb128 0x3b
 1548 00fb 05       		.uleb128 0x5
 1549 00fc 27       		.uleb128 0x27
 1550 00fd 19       		.uleb128 0x19
 1551 00fe 11       		.uleb128 0x11
 1552 00ff 01       		.uleb128 0x1
 1553 0100 12       		.uleb128 0x12
 1554 0101 06       		.uleb128 0x6
 1555 0102 40       		.uleb128 0x40
 1556 0103 18       		.uleb128 0x18
 1557 0104 9642     		.uleb128 0x2116
 1558 0106 19       		.uleb128 0x19
ARM GAS  C:\Users\Sam\AppData\Local\Temp\ccJjUaFv.s 			page 35


 1559 0107 01       		.uleb128 0x1
 1560 0108 13       		.uleb128 0x13
 1561 0109 00       		.byte	0
 1562 010a 00       		.byte	0
 1563 010b 0E       		.uleb128 0xe
 1564 010c 05       		.uleb128 0x5
 1565 010d 00       		.byte	0
 1566 010e 03       		.uleb128 0x3
 1567 010f 0E       		.uleb128 0xe
 1568 0110 3A       		.uleb128 0x3a
 1569 0111 0B       		.uleb128 0xb
 1570 0112 3B       		.uleb128 0x3b
 1571 0113 05       		.uleb128 0x5
 1572 0114 49       		.uleb128 0x49
 1573 0115 13       		.uleb128 0x13
 1574 0116 02       		.uleb128 0x2
 1575 0117 18       		.uleb128 0x18
 1576 0118 00       		.byte	0
 1577 0119 00       		.byte	0
 1578 011a 0F       		.uleb128 0xf
 1579 011b 05       		.uleb128 0x5
 1580 011c 00       		.byte	0
 1581 011d 03       		.uleb128 0x3
 1582 011e 08       		.uleb128 0x8
 1583 011f 3A       		.uleb128 0x3a
 1584 0120 0B       		.uleb128 0xb
 1585 0121 3B       		.uleb128 0x3b
 1586 0122 05       		.uleb128 0x5
 1587 0123 49       		.uleb128 0x49
 1588 0124 13       		.uleb128 0x13
 1589 0125 02       		.uleb128 0x2
 1590 0126 18       		.uleb128 0x18
 1591 0127 00       		.byte	0
 1592 0128 00       		.byte	0
 1593 0129 10       		.uleb128 0x10
 1594 012a 0F       		.uleb128 0xf
 1595 012b 00       		.byte	0
 1596 012c 0B       		.uleb128 0xb
 1597 012d 0B       		.uleb128 0xb
 1598 012e 49       		.uleb128 0x49
 1599 012f 13       		.uleb128 0x13
 1600 0130 00       		.byte	0
 1601 0131 00       		.byte	0
 1602 0132 11       		.uleb128 0x11
 1603 0133 2E       		.uleb128 0x2e
 1604 0134 00       		.byte	0
 1605 0135 3F       		.uleb128 0x3f
 1606 0136 19       		.uleb128 0x19
 1607 0137 03       		.uleb128 0x3
 1608 0138 0E       		.uleb128 0xe
 1609 0139 3A       		.uleb128 0x3a
 1610 013a 0B       		.uleb128 0xb
 1611 013b 3B       		.uleb128 0x3b
 1612 013c 05       		.uleb128 0x5
 1613 013d 49       		.uleb128 0x49
 1614 013e 13       		.uleb128 0x13
 1615 013f 11       		.uleb128 0x11
ARM GAS  C:\Users\Sam\AppData\Local\Temp\ccJjUaFv.s 			page 36


 1616 0140 01       		.uleb128 0x1
 1617 0141 12       		.uleb128 0x12
 1618 0142 06       		.uleb128 0x6
 1619 0143 40       		.uleb128 0x40
 1620 0144 18       		.uleb128 0x18
 1621 0145 9742     		.uleb128 0x2117
 1622 0147 19       		.uleb128 0x19
 1623 0148 00       		.byte	0
 1624 0149 00       		.byte	0
 1625 014a 12       		.uleb128 0x12
 1626 014b 2E       		.uleb128 0x2e
 1627 014c 00       		.byte	0
 1628 014d 3F       		.uleb128 0x3f
 1629 014e 19       		.uleb128 0x19
 1630 014f 03       		.uleb128 0x3
 1631 0150 0E       		.uleb128 0xe
 1632 0151 3A       		.uleb128 0x3a
 1633 0152 0B       		.uleb128 0xb
 1634 0153 3B       		.uleb128 0x3b
 1635 0154 05       		.uleb128 0x5
 1636 0155 49       		.uleb128 0x49
 1637 0156 13       		.uleb128 0x13
 1638 0157 11       		.uleb128 0x11
 1639 0158 01       		.uleb128 0x1
 1640 0159 12       		.uleb128 0x12
 1641 015a 06       		.uleb128 0x6
 1642 015b 40       		.uleb128 0x40
 1643 015c 18       		.uleb128 0x18
 1644 015d 9642     		.uleb128 0x2116
 1645 015f 19       		.uleb128 0x19
 1646 0160 00       		.byte	0
 1647 0161 00       		.byte	0
 1648 0162 13       		.uleb128 0x13
 1649 0163 34       		.uleb128 0x34
 1650 0164 00       		.byte	0
 1651 0165 03       		.uleb128 0x3
 1652 0166 0E       		.uleb128 0xe
 1653 0167 3A       		.uleb128 0x3a
 1654 0168 0B       		.uleb128 0xb
 1655 0169 3B       		.uleb128 0x3b
 1656 016a 0B       		.uleb128 0xb
 1657 016b 49       		.uleb128 0x49
 1658 016c 13       		.uleb128 0x13
 1659 016d 3F       		.uleb128 0x3f
 1660 016e 19       		.uleb128 0x19
 1661 016f 02       		.uleb128 0x2
 1662 0170 18       		.uleb128 0x18
 1663 0171 00       		.byte	0
 1664 0172 00       		.byte	0
 1665 0173 14       		.uleb128 0x14
 1666 0174 01       		.uleb128 0x1
 1667 0175 01       		.byte	0x1
 1668 0176 49       		.uleb128 0x49
 1669 0177 13       		.uleb128 0x13
 1670 0178 01       		.uleb128 0x1
 1671 0179 13       		.uleb128 0x13
 1672 017a 00       		.byte	0
ARM GAS  C:\Users\Sam\AppData\Local\Temp\ccJjUaFv.s 			page 37


 1673 017b 00       		.byte	0
 1674 017c 15       		.uleb128 0x15
 1675 017d 21       		.uleb128 0x21
 1676 017e 00       		.byte	0
 1677 017f 49       		.uleb128 0x49
 1678 0180 13       		.uleb128 0x13
 1679 0181 2F       		.uleb128 0x2f
 1680 0182 0B       		.uleb128 0xb
 1681 0183 00       		.byte	0
 1682 0184 00       		.byte	0
 1683 0185 00       		.byte	0
 1684              		.section	.debug_aranges,"",%progbits
 1685 0000 CC000000 		.4byte	0xcc
 1686 0004 0200     		.2byte	0x2
 1687 0006 00000000 		.4byte	.Ldebug_info0
 1688 000a 04       		.byte	0x4
 1689 000b 00       		.byte	0
 1690 000c 0000     		.2byte	0
 1691 000e 0000     		.2byte	0
 1692 0010 00000000 		.4byte	.LFB33
 1693 0014 14000000 		.4byte	.LFE33-.LFB33
 1694 0018 00000000 		.4byte	.LFB34
 1695 001c 20000000 		.4byte	.LFE34-.LFB34
 1696 0020 00000000 		.4byte	.LFB35
 1697 0024 28000000 		.4byte	.LFE35-.LFB35
 1698 0028 00000000 		.4byte	.LFB36
 1699 002c 40000000 		.4byte	.LFE36-.LFB36
 1700 0030 00000000 		.4byte	.LFB37
 1701 0034 14000000 		.4byte	.LFE37-.LFB37
 1702 0038 00000000 		.4byte	.LFB38
 1703 003c 14000000 		.4byte	.LFE38-.LFB38
 1704 0040 00000000 		.4byte	.LFB39
 1705 0044 14000000 		.4byte	.LFE39-.LFB39
 1706 0048 00000000 		.4byte	.LFB40
 1707 004c 12000000 		.4byte	.LFE40-.LFB40
 1708 0050 00000000 		.4byte	.LFB41
 1709 0054 14000000 		.4byte	.LFE41-.LFB41
 1710 0058 00000000 		.4byte	.LFB42
 1711 005c 14000000 		.4byte	.LFE42-.LFB42
 1712 0060 00000000 		.4byte	.LFB43
 1713 0064 14000000 		.4byte	.LFE43-.LFB43
 1714 0068 00000000 		.4byte	.LFB44
 1715 006c 2C000000 		.4byte	.LFE44-.LFB44
 1716 0070 00000000 		.4byte	.LFB45
 1717 0074 14000000 		.4byte	.LFE45-.LFB45
 1718 0078 00000000 		.4byte	.LFB46
 1719 007c 34000000 		.4byte	.LFE46-.LFB46
 1720 0080 00000000 		.4byte	.LFB47
 1721 0084 80000000 		.4byte	.LFE47-.LFB47
 1722 0088 00000000 		.4byte	.LFB48
 1723 008c 0A000000 		.4byte	.LFE48-.LFB48
 1724 0090 00000000 		.4byte	.LFB49
 1725 0094 0A000000 		.4byte	.LFE49-.LFB49
 1726 0098 00000000 		.4byte	.LFB50
 1727 009c 0A000000 		.4byte	.LFE50-.LFB50
 1728 00a0 00000000 		.4byte	.LFB51
 1729 00a4 0A000000 		.4byte	.LFE51-.LFB51
ARM GAS  C:\Users\Sam\AppData\Local\Temp\ccJjUaFv.s 			page 38


 1730 00a8 00000000 		.4byte	.LFB52
 1731 00ac 2C000000 		.4byte	.LFE52-.LFB52
 1732 00b0 00000000 		.4byte	.LFB53
 1733 00b4 28000000 		.4byte	.LFE53-.LFB53
 1734 00b8 00000000 		.4byte	.LFB54
 1735 00bc 28000000 		.4byte	.LFE54-.LFB54
 1736 00c0 00000000 		.4byte	.LFB55
 1737 00c4 28000000 		.4byte	.LFE55-.LFB55
 1738 00c8 00000000 		.4byte	0
 1739 00cc 00000000 		.4byte	0
 1740              		.section	.debug_ranges,"",%progbits
 1741              	.Ldebug_ranges0:
 1742 0000 00000000 		.4byte	.LFB33
 1743 0004 14000000 		.4byte	.LFE33
 1744 0008 00000000 		.4byte	.LFB34
 1745 000c 20000000 		.4byte	.LFE34
 1746 0010 00000000 		.4byte	.LFB35
 1747 0014 28000000 		.4byte	.LFE35
 1748 0018 00000000 		.4byte	.LFB36
 1749 001c 40000000 		.4byte	.LFE36
 1750 0020 00000000 		.4byte	.LFB37
 1751 0024 14000000 		.4byte	.LFE37
 1752 0028 00000000 		.4byte	.LFB38
 1753 002c 14000000 		.4byte	.LFE38
 1754 0030 00000000 		.4byte	.LFB39
 1755 0034 14000000 		.4byte	.LFE39
 1756 0038 00000000 		.4byte	.LFB40
 1757 003c 12000000 		.4byte	.LFE40
 1758 0040 00000000 		.4byte	.LFB41
 1759 0044 14000000 		.4byte	.LFE41
 1760 0048 00000000 		.4byte	.LFB42
 1761 004c 14000000 		.4byte	.LFE42
 1762 0050 00000000 		.4byte	.LFB43
 1763 0054 14000000 		.4byte	.LFE43
 1764 0058 00000000 		.4byte	.LFB44
 1765 005c 2C000000 		.4byte	.LFE44
 1766 0060 00000000 		.4byte	.LFB45
 1767 0064 14000000 		.4byte	.LFE45
 1768 0068 00000000 		.4byte	.LFB46
 1769 006c 34000000 		.4byte	.LFE46
 1770 0070 00000000 		.4byte	.LFB47
 1771 0074 80000000 		.4byte	.LFE47
 1772 0078 00000000 		.4byte	.LFB48
 1773 007c 0A000000 		.4byte	.LFE48
 1774 0080 00000000 		.4byte	.LFB49
 1775 0084 0A000000 		.4byte	.LFE49
 1776 0088 00000000 		.4byte	.LFB50
 1777 008c 0A000000 		.4byte	.LFE50
 1778 0090 00000000 		.4byte	.LFB51
 1779 0094 0A000000 		.4byte	.LFE51
 1780 0098 00000000 		.4byte	.LFB52
 1781 009c 2C000000 		.4byte	.LFE52
 1782 00a0 00000000 		.4byte	.LFB53
 1783 00a4 28000000 		.4byte	.LFE53
 1784 00a8 00000000 		.4byte	.LFB54
 1785 00ac 28000000 		.4byte	.LFE54
 1786 00b0 00000000 		.4byte	.LFB55
ARM GAS  C:\Users\Sam\AppData\Local\Temp\ccJjUaFv.s 			page 39


 1787 00b4 28000000 		.4byte	.LFE55
 1788 00b8 00000000 		.4byte	0
 1789 00bc 00000000 		.4byte	0
 1790              		.section	.debug_line,"",%progbits
 1791              	.Ldebug_line0:
 1792 0000 E9020000 		.section	.debug_str,"MS",%progbits,1
 1792      02003101 
 1792      00000201 
 1792      FB0E0D00 
 1792      01010101 
 1793              	.LASF2:
 1794 0000 5F5F7569 		.ascii	"__uint8_t\000"
 1794      6E74385F 
 1794      7400
 1795              	.LASF20:
 1796 000a 5F426F6F 		.ascii	"_Bool\000"
 1796      6C00
 1797              	.LASF52:
 1798 0010 484D4335 		.ascii	"HMC5883L_initialize\000"
 1798      3838334C 
 1798      5F696E69 
 1798      7469616C 
 1798      697A6500 
 1799              	.LASF45:
 1800 0024 484D4335 		.ascii	"HMC5883L_getIDC\000"
 1800      3838334C 
 1800      5F676574 
 1800      49444300 
 1801              	.LASF41:
 1802 0034 484D4335 		.ascii	"HMC5883L_getLockStatus\000"
 1802      3838334C 
 1802      5F676574 
 1802      4C6F636B 
 1802      53746174 
 1803              	.LASF36:
 1804 004b 6E65774D 		.ascii	"newMode\000"
 1804      6F646500 
 1805              	.LASF32:
 1806 0053 484D4335 		.ascii	"HMC5883L_getGain\000"
 1806      3838334C 
 1806      5F676574 
 1806      4761696E 
 1806      00
 1807              	.LASF28:
 1808 0064 72617465 		.ascii	"rate\000"
 1808      00
 1809              	.LASF51:
 1810 0069 433A5C55 		.ascii	"C:\\Users\\Sam\\OneDrive\\Github\\PSoC-4-Compass-Se"
 1810      73657273 
 1810      5C53616D 
 1810      5C4F6E65 
 1810      44726976 
 1811 0097 6E736F72 		.ascii	"nsor\\PSoC 4 Compass Modbus Slave.cydsn\000"
 1811      5C50536F 
 1811      43203420 
 1811      436F6D70 
 1811      61737320 
ARM GAS  C:\Users\Sam\AppData\Local\Temp\ccJjUaFv.s 			page 40


 1812              	.LASF26:
 1813 00be 484D4335 		.ascii	"HMC5883L_getDataRate\000"
 1813      3838334C 
 1813      5F676574 
 1813      44617461 
 1813      52617465 
 1814              	.LASF34:
 1815 00d3 6761696E 		.ascii	"gain\000"
 1815      00
 1816              	.LASF19:
 1817 00d8 484D4335 		.ascii	"HMC5883L_testConnection\000"
 1817      3838334C 
 1817      5F746573 
 1817      74436F6E 
 1817      6E656374 
 1818              	.LASF43:
 1819 00f0 484D4335 		.ascii	"HMC5883L_getIDA\000"
 1819      3838334C 
 1819      5F676574 
 1819      49444100 
 1820              	.LASF44:
 1821 0100 484D4335 		.ascii	"HMC5883L_getIDB\000"
 1821      3838334C 
 1821      5F676574 
 1821      49444200 
 1822              	.LASF13:
 1823 0110 666C6F61 		.ascii	"float\000"
 1823      7400
 1824              	.LASF49:
 1825 0116 474E5520 		.ascii	"GNU C 4.8.4 20140526 (release) [ARM/embedded-4_8-br"
 1825      4320342E 
 1825      382E3420 
 1825      32303134 
 1825      30353236 
 1826 0149 616E6368 		.ascii	"anch revision 211358] -mcpu=cortex-m0 -mthumb -g -O"
 1826      20726576 
 1826      6973696F 
 1826      6E203231 
 1826      31333538 
 1827 017c 30202D66 		.ascii	"0 -ffunction-sections\000"
 1827      66756E63 
 1827      74696F6E 
 1827      2D736563 
 1827      74696F6E 
 1828              	.LASF33:
 1829 0192 484D4335 		.ascii	"HMC5883L_setGain\000"
 1829      3838334C 
 1829      5F736574 
 1829      4761696E 
 1829      00
 1830              	.LASF1:
 1831 01a3 756E7369 		.ascii	"unsigned char\000"
 1831      676E6564 
 1831      20636861 
 1831      7200
 1832              	.LASF53:
 1833 01b1 484D4335 		.ascii	"HMC5883L_getMode\000"
ARM GAS  C:\Users\Sam\AppData\Local\Temp\ccJjUaFv.s 			page 41


 1833      3838334C 
 1833      5F676574 
 1833      4D6F6465 
 1833      00
 1834              	.LASF7:
 1835 01c2 6C6F6E67 		.ascii	"long unsigned int\000"
 1835      20756E73 
 1835      69676E65 
 1835      6420696E 
 1835      7400
 1836              	.LASF42:
 1837 01d4 484D4335 		.ascii	"HMC5883L_getReadyStatus\000"
 1837      3838334C 
 1837      5F676574 
 1837      52656164 
 1837      79537461 
 1838              	.LASF5:
 1839 01ec 73686F72 		.ascii	"short unsigned int\000"
 1839      7420756E 
 1839      7369676E 
 1839      65642069 
 1839      6E7400
 1840              	.LASF21:
 1841 01ff 484D4335 		.ascii	"HMC5883L_getSampleAveraging\000"
 1841      3838334C 
 1841      5F676574 
 1841      53616D70 
 1841      6C654176 
 1842              	.LASF18:
 1843 021b 484D4335 		.ascii	"HMC5883L_Init\000"
 1843      3838334C 
 1843      5F496E69 
 1843      7400
 1844              	.LASF14:
 1845 0229 646F7562 		.ascii	"double\000"
 1845      6C6500
 1846              	.LASF27:
 1847 0230 484D4335 		.ascii	"HMC5883L_setDataRate\000"
 1847      3838334C 
 1847      5F736574 
 1847      44617461 
 1847      52617465 
 1848              	.LASF29:
 1849 0245 484D4335 		.ascii	"HMC5883L_getMeasurementBias\000"
 1849      3838334C 
 1849      5F676574 
 1849      4D656173 
 1849      7572656D 
 1850              	.LASF3:
 1851 0261 5F5F696E 		.ascii	"__int16_t\000"
 1851      7431365F 
 1851      7400
 1852              	.LASF10:
 1853 026b 756E7369 		.ascii	"unsigned int\000"
 1853      676E6564 
 1853      20696E74 
 1853      00
ARM GAS  C:\Users\Sam\AppData\Local\Temp\ccJjUaFv.s 			page 42


 1854              	.LASF24:
 1855 0278 61646472 		.ascii	"address\000"
 1855      65737300 
 1856              	.LASF9:
 1857 0280 6C6F6E67 		.ascii	"long long unsigned int\000"
 1857      206C6F6E 
 1857      6720756E 
 1857      7369676E 
 1857      65642069 
 1858              	.LASF11:
 1859 0297 75696E74 		.ascii	"uint8_t\000"
 1859      385F7400 
 1860              	.LASF25:
 1861 029f 61766572 		.ascii	"averaging\000"
 1861      6167696E 
 1861      6700
 1862              	.LASF48:
 1863 02a9 6D6F6465 		.ascii	"mode\000"
 1863      00
 1864              	.LASF12:
 1865 02ae 696E7431 		.ascii	"int16_t\000"
 1865      365F7400 
 1866              	.LASF23:
 1867 02b6 484D4335 		.ascii	"HMC5883L_setSampleAveraging\000"
 1867      3838334C 
 1867      5F736574 
 1867      53616D70 
 1867      6C654176 
 1868              	.LASF16:
 1869 02d2 73697A65 		.ascii	"sizetype\000"
 1869      74797065 
 1869      00
 1870              	.LASF35:
 1871 02db 484D4335 		.ascii	"HMC5883L_setMode\000"
 1871      3838334C 
 1871      5F736574 
 1871      4D6F6465 
 1871      00
 1872              	.LASF8:
 1873 02ec 6C6F6E67 		.ascii	"long long int\000"
 1873      206C6F6E 
 1873      6720696E 
 1873      7400
 1874              	.LASF31:
 1875 02fa 62696173 		.ascii	"bias\000"
 1875      00
 1876              	.LASF37:
 1877 02ff 484D4335 		.ascii	"HMC5883L_getHeading\000"
 1877      3838334C 
 1877      5F676574 
 1877      48656164 
 1877      696E6700 
 1878              	.LASF50:
 1879 0313 2E5C686D 		.ascii	".\\hmc5883l.c\000"
 1879      63353838 
 1879      336C2E63 
 1879      00
ARM GAS  C:\Users\Sam\AppData\Local\Temp\ccJjUaFv.s 			page 43


 1880              	.LASF4:
 1881 0320 73686F72 		.ascii	"short int\000"
 1881      7420696E 
 1881      7400
 1882              	.LASF46:
 1883 032a 64657641 		.ascii	"devAddr\000"
 1883      64647200 
 1884              	.LASF47:
 1885 0332 62756666 		.ascii	"buffer\000"
 1885      657200
 1886              	.LASF30:
 1887 0339 484D4335 		.ascii	"HMC5883L_setMeasurementBias\000"
 1887      3838334C 
 1887      5F736574 
 1887      4D656173 
 1887      7572656D 
 1888              	.LASF22:
 1889 0355 484D4335 		.ascii	"HMC5883L_SetCustomAddress\000"
 1889      3838334C 
 1889      5F536574 
 1889      43757374 
 1889      6F6D4164 
 1890              	.LASF6:
 1891 036f 6C6F6E67 		.ascii	"long int\000"
 1891      20696E74 
 1891      00
 1892              	.LASF15:
 1893 0378 63686172 		.ascii	"char\000"
 1893      00
 1894              	.LASF17:
 1895 037d 6C6F6E67 		.ascii	"long double\000"
 1895      20646F75 
 1895      626C6500 
 1896              	.LASF0:
 1897 0389 7369676E 		.ascii	"signed char\000"
 1897      65642063 
 1897      68617200 
 1898              	.LASF38:
 1899 0395 484D4335 		.ascii	"HMC5883L_getHeadingX\000"
 1899      3838334C 
 1899      5F676574 
 1899      48656164 
 1899      696E6758 
 1900              	.LASF39:
 1901 03aa 484D4335 		.ascii	"HMC5883L_getHeadingY\000"
 1901      3838334C 
 1901      5F676574 
 1901      48656164 
 1901      696E6759 
 1902              	.LASF40:
 1903 03bf 484D4335 		.ascii	"HMC5883L_getHeadingZ\000"
 1903      3838334C 
 1903      5F676574 
 1903      48656164 
 1903      696E675A 
 1904              		.ident	"GCC: (GNU Tools for ARM Embedded Processors) 4.8.4 20140526 (release) [ARM/embedded-4_8-br
