ARM GAS  C:\Users\Sam\AppData\Local\Temp\ccJjUaFv.s 			page 1


   1              		.cpu cortex-m0
   2              		.fpu softvfp
   3              		.eabi_attribute 20, 1
   4              		.eabi_attribute 21, 1
   5              		.eabi_attribute 23, 3
   6              		.eabi_attribute 24, 1
   7              		.eabi_attribute 25, 1
   8              		.eabi_attribute 26, 1
   9              		.eabi_attribute 30, 6
  10              		.eabi_attribute 34, 0
  11              		.eabi_attribute 18, 4
  12              		.code	16
  13              		.file	"hmc5883l.c"
  14              		.text
  15              	.Ltext0:
  16              		.cfi_sections	.debug_frame
  17              		.comm	devAddr,1,1
  18              		.comm	buffer,6,4
  19              		.comm	mode,1,1
  20              		.section	.text.HMC5883L_Init,"ax",%progbits
  21              		.align	2
  22              		.global	HMC5883L_Init
  23              		.code	16
  24              		.thumb_func
  25              		.type	HMC5883L_Init, %function
  26              	HMC5883L_Init:
  27              	.LFB33:
  28              		.file 1 ".\\hmc5883l.c"
   1:.\hmc5883l.c  **** // I2Cdev library collection - HMC5883L I2C device class
   2:.\hmc5883l.c  **** // Based on Honeywell HMC5883L datasheet, 10/2010 (Form #900405 Rev B)
   3:.\hmc5883l.c  **** // 6/12/2012 by Jeff Rowberg <jeff@rowberg.net>
   4:.\hmc5883l.c  **** // Updates should (hopefully) always be available at https://github.com/jrowberg/i2cdevlib
   5:.\hmc5883l.c  **** //
   6:.\hmc5883l.c  **** // Changelog:
   7:.\hmc5883l.c  **** //     2012-06-12 - fixed swapped Y/Z axes
   8:.\hmc5883l.c  **** //     2011-08-22 - small Doxygen comment fixes
   9:.\hmc5883l.c  **** //     2011-07-31 - initial release
  10:.\hmc5883l.c  **** 
  11:.\hmc5883l.c  **** /* ============================================
  12:.\hmc5883l.c  **** I2Cdev device library code is placed under the MIT license
  13:.\hmc5883l.c  **** Copyright (c) 2012 Jeff Rowberg
  14:.\hmc5883l.c  **** 
  15:.\hmc5883l.c  **** Permission is hereby granted, free of charge, to any person obtaining a copy
  16:.\hmc5883l.c  **** of this software and associated documentation files (the "Software"), to deal
  17:.\hmc5883l.c  **** in the Software without restriction, including without limitation the rights
  18:.\hmc5883l.c  **** to use, copy, modify, merge, publish, distribute, sublicense, and/or sell
  19:.\hmc5883l.c  **** copies of the Software, and to permit persons to whom the Software is
  20:.\hmc5883l.c  **** furnished to do so, subject to the following conditions:
  21:.\hmc5883l.c  **** 
  22:.\hmc5883l.c  **** The above copyright notice and this permission notice shall be included in
  23:.\hmc5883l.c  **** all copies or substantial portions of the Software.
  24:.\hmc5883l.c  **** 
  25:.\hmc5883l.c  **** THE SOFTWARE IS PROVIDED "AS IS", WITHOUT WARRANTY OF ANY KIND, EXPRESS OR
  26:.\hmc5883l.c  **** IMPLIED, INCLUDING BUT NOT LIMITED TO THE WARRANTIES OF MERCHANTABILITY,
  27:.\hmc5883l.c  **** FITNESS FOR A PARTICULAR PURPOSE AND NONINFRINGEMENT. IN NO EVENT SHALL THE
  28:.\hmc5883l.c  **** AUTHORS OR COPYRIGHT HOLDERS BE LIABLE FOR ANY CLAIM, DAMAGES OR OTHER
  29:.\hmc5883l.c  **** LIABILITY, WHETHER IN AN ACTION OF CONTRACT, TORT OR OTHERWISE, ARISING FROM,
ARM GAS  C:\Users\Sam\AppData\Local\Temp\ccJjUaFv.s 			page 2


  30:.\hmc5883l.c  **** OUT OF OR IN CONNECTION WITH THE SOFTWARE OR THE USE OR OTHER DEALINGS IN
  31:.\hmc5883l.c  **** THE SOFTWARE.
  32:.\hmc5883l.c  **** ===============================================
  33:.\hmc5883l.c  **** */
  34:.\hmc5883l.c  **** #include <project.h>
  35:.\hmc5883l.c  **** #include "hmc5883l.h"
  36:.\hmc5883l.c  **** #include "i2cfunctions.h"
  37:.\hmc5883l.c  **** 
  38:.\hmc5883l.c  **** 
  39:.\hmc5883l.c  **** /** Default constructor, uses default I2C address.
  40:.\hmc5883l.c  ****  * @see HMC5883L_DEFAULT_ADDRESS
  41:.\hmc5883l.c  ****  */
  42:.\hmc5883l.c  **** void HMC5883L_Init(void) {
  29              		.loc 1 42 0
  30              		.cfi_startproc
  31 0000 80B5     		push	{r7, lr}
  32              		.cfi_def_cfa_offset 8
  33              		.cfi_offset 7, -8
  34              		.cfi_offset 14, -4
  35 0002 00AF     		add	r7, sp, #0
  36              		.cfi_def_cfa_register 7
  43:.\hmc5883l.c  ****     devAddr = HMC5883L_DEFAULT_ADDRESS;
  37              		.loc 1 43 0
  38 0004 024B     		ldr	r3, .L2
  39 0006 1E22     		mov	r2, #30
  40 0008 1A70     		strb	r2, [r3]
  44:.\hmc5883l.c  **** }
  41              		.loc 1 44 0
  42 000a BD46     		mov	sp, r7
  43              		@ sp needed
  44 000c 80BD     		pop	{r7, pc}
  45              	.L3:
  46 000e C046     		.align	2
  47              	.L2:
  48 0010 00000000 		.word	devAddr
  49              		.cfi_endproc
  50              	.LFE33:
  51              		.size	HMC5883L_Init, .-HMC5883L_Init
  52              		.section	.text.HMC5883L_SetCustomAddress,"ax",%progbits
  53              		.align	2
  54              		.global	HMC5883L_SetCustomAddress
  55              		.code	16
  56              		.thumb_func
  57              		.type	HMC5883L_SetCustomAddress, %function
  58              	HMC5883L_SetCustomAddress:
  59              	.LFB34:
  45:.\hmc5883l.c  **** 
  46:.\hmc5883l.c  **** /** Specific address constructor.
  47:.\hmc5883l.c  ****  * @param address I2C address
  48:.\hmc5883l.c  ****  * @see HMC5883L_DEFAULT_ADDRESS
  49:.\hmc5883l.c  ****  * @see HMC5883L_ADDRESS
  50:.\hmc5883l.c  ****  */
  51:.\hmc5883l.c  **** void HMC5883L_SetCustomAddress(uint8_t address) {
  60              		.loc 1 51 0
  61              		.cfi_startproc
  62 0000 80B5     		push	{r7, lr}
  63              		.cfi_def_cfa_offset 8
ARM GAS  C:\Users\Sam\AppData\Local\Temp\ccJjUaFv.s 			page 3


  64              		.cfi_offset 7, -8
  65              		.cfi_offset 14, -4
  66 0002 82B0     		sub	sp, sp, #8
  67              		.cfi_def_cfa_offset 16
  68 0004 00AF     		add	r7, sp, #0
  69              		.cfi_def_cfa_register 7
  70 0006 021C     		mov	r2, r0
  71 0008 FB1D     		add	r3, r7, #7
  72 000a 1A70     		strb	r2, [r3]
  52:.\hmc5883l.c  ****     devAddr = address;
  73              		.loc 1 52 0
  74 000c 034B     		ldr	r3, .L5
  75 000e FA1D     		add	r2, r7, #7
  76 0010 1278     		ldrb	r2, [r2]
  77 0012 1A70     		strb	r2, [r3]
  53:.\hmc5883l.c  **** }
  78              		.loc 1 53 0
  79 0014 BD46     		mov	sp, r7
  80 0016 02B0     		add	sp, sp, #8
  81              		@ sp needed
  82 0018 80BD     		pop	{r7, pc}
  83              	.L6:
  84 001a C046     		.align	2
  85              	.L5:
  86 001c 00000000 		.word	devAddr
  87              		.cfi_endproc
  88              	.LFE34:
  89              		.size	HMC5883L_SetCustomAddress, .-HMC5883L_SetCustomAddress
  90              		.section	.text.HMC5883L_initialize,"ax",%progbits
  91              		.align	2
  92              		.global	HMC5883L_initialize
  93              		.code	16
  94              		.thumb_func
  95              		.type	HMC5883L_initialize, %function
  96              	HMC5883L_initialize:
  97              	.LFB35:
  54:.\hmc5883l.c  **** 
  55:.\hmc5883l.c  **** /** Power on and prepare for general usage.
  56:.\hmc5883l.c  ****  * This will prepare the magnetometer with default settings, ready for single-
  57:.\hmc5883l.c  ****  * use mode (very low power requirements). Default settings include 8-sample
  58:.\hmc5883l.c  ****  * averaging, 15 Hz data output rate, normal measurement bias, a,d 1090 gain (in
  59:.\hmc5883l.c  ****  * terms of LSB/Gauss). Be sure to adjust any settings you need specifically
  60:.\hmc5883l.c  ****  * after initialization, especially the gain settings if you happen to be seeing
  61:.\hmc5883l.c  ****  * a lot of -4096 values (see the datasheet for mor information).
  62:.\hmc5883l.c  ****  */
  63:.\hmc5883l.c  **** void HMC5883L_initialize() {
  98              		.loc 1 63 0
  99              		.cfi_startproc
 100 0000 80B5     		push	{r7, lr}
 101              		.cfi_def_cfa_offset 8
 102              		.cfi_offset 7, -8
 103              		.cfi_offset 14, -4
 104 0002 00AF     		add	r7, sp, #0
 105              		.cfi_def_cfa_register 7
  64:.\hmc5883l.c  ****     // write CONFIG_A register
  65:.\hmc5883l.c  ****      I2CWriteByte(devAddr, HMC5883L_RA_CONFIG_A,
 106              		.loc 1 65 0
ARM GAS  C:\Users\Sam\AppData\Local\Temp\ccJjUaFv.s 			page 4


 107 0004 074B     		ldr	r3, .L8
 108 0006 1B78     		ldrb	r3, [r3]
 109 0008 181C     		mov	r0, r3
 110 000a 0021     		mov	r1, #0
 111 000c 7022     		mov	r2, #112
 112 000e FFF7FEFF 		bl	I2CWriteByte
  66:.\hmc5883l.c  ****         (HMC5883L_AVERAGING_8 << (HMC5883L_CRA_AVERAGE_BIT - HMC5883L_CRA_AVERAGE_LENGTH + 1)) |
  67:.\hmc5883l.c  ****         (HMC5883L_RATE_15     << (HMC5883L_CRA_RATE_BIT - HMC5883L_CRA_RATE_LENGTH + 1)) |
  68:.\hmc5883l.c  ****         (HMC5883L_BIAS_NORMAL << (HMC5883L_CRA_BIAS_BIT - HMC5883L_CRA_BIAS_LENGTH + 1)));
  69:.\hmc5883l.c  **** 
  70:.\hmc5883l.c  ****     // write CONFIG_B register
  71:.\hmc5883l.c  ****     HMC5883L_setGain(HMC5883L_GAIN_1090);
 113              		.loc 1 71 0
 114 0012 0120     		mov	r0, #1
 115 0014 FFF7FEFF 		bl	HMC5883L_setGain
  72:.\hmc5883l.c  ****     
  73:.\hmc5883l.c  ****     // write MODE register
  74:.\hmc5883l.c  ****     HMC5883L_setMode(HMC5883L_MODE_SINGLE);
 116              		.loc 1 74 0
 117 0018 0120     		mov	r0, #1
 118 001a FFF7FEFF 		bl	HMC5883L_setMode
  75:.\hmc5883l.c  **** }
 119              		.loc 1 75 0
 120 001e BD46     		mov	sp, r7
 121              		@ sp needed
 122 0020 80BD     		pop	{r7, pc}
 123              	.L9:
 124 0022 C046     		.align	2
 125              	.L8:
 126 0024 00000000 		.word	devAddr
 127              		.cfi_endproc
 128              	.LFE35:
 129              		.size	HMC5883L_initialize, .-HMC5883L_initialize
 130              		.section	.text.HMC5883L_testConnection,"ax",%progbits
 131              		.align	2
 132              		.global	HMC5883L_testConnection
 133              		.code	16
 134              		.thumb_func
 135              		.type	HMC5883L_testConnection, %function
 136              	HMC5883L_testConnection:
 137              	.LFB36:
  76:.\hmc5883l.c  **** 
  77:.\hmc5883l.c  **** /** Verify the I2C connection.
  78:.\hmc5883l.c  ****  * Make sure the device is connected and responds as expected.
  79:.\hmc5883l.c  ****  * @return True if connection is valid, false otherwise
  80:.\hmc5883l.c  ****  */
  81:.\hmc5883l.c  **** bool HMC5883L_testConnection() {
 138              		.loc 1 81 0
 139              		.cfi_startproc
 140 0000 80B5     		push	{r7, lr}
 141              		.cfi_def_cfa_offset 8
 142              		.cfi_offset 7, -8
 143              		.cfi_offset 14, -4
 144 0002 00AF     		add	r7, sp, #0
 145              		.cfi_def_cfa_register 7
  82:.\hmc5883l.c  ****     I2CReadBytes(devAddr, HMC5883L_RA_ID_A, 3, buffer);
 146              		.loc 1 82 0
ARM GAS  C:\Users\Sam\AppData\Local\Temp\ccJjUaFv.s 			page 5


 147 0004 0C4B     		ldr	r3, .L13
 148 0006 1A78     		ldrb	r2, [r3]
 149 0008 0C4B     		ldr	r3, .L13+4
 150 000a 101C     		mov	r0, r2
 151 000c 0A21     		mov	r1, #10
 152 000e 0322     		mov	r2, #3
 153 0010 FFF7FEFF 		bl	I2CReadBytes
  83:.\hmc5883l.c  ****     if(buffer[0] == 'H' && buffer[1] == '4' && buffer[2] == '3'){
 154              		.loc 1 83 0
 155 0014 094B     		ldr	r3, .L13+4
 156 0016 1B78     		ldrb	r3, [r3]
 157 0018 482B     		cmp	r3, #72
 158 001a 09D1     		bne	.L11
 159              		.loc 1 83 0 is_stmt 0 discriminator 1
 160 001c 074B     		ldr	r3, .L13+4
 161 001e 5B78     		ldrb	r3, [r3, #1]
 162 0020 342B     		cmp	r3, #52
 163 0022 05D1     		bne	.L11
 164 0024 054B     		ldr	r3, .L13+4
 165 0026 9B78     		ldrb	r3, [r3, #2]
 166 0028 332B     		cmp	r3, #51
 167 002a 01D1     		bne	.L11
  84:.\hmc5883l.c  ****         return 1;
 168              		.loc 1 84 0 is_stmt 1
 169 002c 0123     		mov	r3, #1
 170 002e 00E0     		b	.L12
 171              	.L11:
  85:.\hmc5883l.c  ****     }
  86:.\hmc5883l.c  ****     else{
  87:.\hmc5883l.c  ****         return 0;
 172              		.loc 1 87 0
 173 0030 0023     		mov	r3, #0
 174              	.L12:
  88:.\hmc5883l.c  ****     }
  89:.\hmc5883l.c  ****   }
 175              		.loc 1 89 0
 176 0032 181C     		mov	r0, r3
 177 0034 BD46     		mov	sp, r7
 178              		@ sp needed
 179 0036 80BD     		pop	{r7, pc}
 180              	.L14:
 181              		.align	2
 182              	.L13:
 183 0038 00000000 		.word	devAddr
 184 003c 00000000 		.word	buffer
 185              		.cfi_endproc
 186              	.LFE36:
 187              		.size	HMC5883L_testConnection, .-HMC5883L_testConnection
 188              		.section	.text.HMC5883L_getSampleAveraging,"ax",%progbits
 189              		.align	2
 190              		.global	HMC5883L_getSampleAveraging
 191              		.code	16
 192              		.thumb_func
 193              		.type	HMC5883L_getSampleAveraging, %function
 194              	HMC5883L_getSampleAveraging:
 195              	.LFB37:
  90:.\hmc5883l.c  **** //I2CReadBytes(uint8_t devAddr, uint8_t regAddr, uint8_t length, uint8_t *value)
ARM GAS  C:\Users\Sam\AppData\Local\Temp\ccJjUaFv.s 			page 6


  91:.\hmc5883l.c  ****   //return false;
  92:.\hmc5883l.c  **** 
  93:.\hmc5883l.c  **** 
  94:.\hmc5883l.c  **** //uint8_t HMC5883L_getDeviceID() {
  95:.\hmc5883l.c  **** //   I2CReadBits(devAddr, MPU6050_RA_WHO_AM_I, MPU6050_WHO_AM_I_BIT, MPU6050_WHO_AM_I_LENGTH, buffe
  96:.\hmc5883l.c  **** //   return buffer[0];
  97:.\hmc5883l.c  **** //}
  98:.\hmc5883l.c  **** 
  99:.\hmc5883l.c  **** // CONFIG_A register
 100:.\hmc5883l.c  **** 
 101:.\hmc5883l.c  **** /** Get number of samples averaged per measurement.
 102:.\hmc5883l.c  ****  * @return Current samples averaged per measurement (0-3 for 1/2/4/8 respectively)
 103:.\hmc5883l.c  ****  * @see HMC5883L_AVERAGING_8
 104:.\hmc5883l.c  ****  * @see HMC5883L_RA_CONFIG_A
 105:.\hmc5883l.c  ****  * @see HMC5883L_CRA_AVERAGE_BIT
 106:.\hmc5883l.c  ****  * @see HMC5883L_CRA_AVERAGE_LENGTH
 107:.\hmc5883l.c  ****  */
 108:.\hmc5883l.c  **** uint8_t HMC5883L_getSampleAveraging() {
 196              		.loc 1 108 0
 197              		.cfi_startproc
 198 0000 80B5     		push	{r7, lr}
 199              		.cfi_def_cfa_offset 8
 200              		.cfi_offset 7, -8
 201              		.cfi_offset 14, -4
 202 0002 00AF     		add	r7, sp, #0
 203              		.cfi_def_cfa_register 7
 109:.\hmc5883l.c  ****     //I2Cdev::readBits(devAddr, HMC5883L_RA_CONFIG_A, HMC5883L_CRA_AVERAGE_BIT, HMC5883L_CRA_AVERAG
 110:.\hmc5883l.c  ****     return buffer[0];
 204              		.loc 1 110 0
 205 0004 024B     		ldr	r3, .L17
 206 0006 1B78     		ldrb	r3, [r3]
 111:.\hmc5883l.c  **** }
 207              		.loc 1 111 0
 208 0008 181C     		mov	r0, r3
 209 000a BD46     		mov	sp, r7
 210              		@ sp needed
 211 000c 80BD     		pop	{r7, pc}
 212              	.L18:
 213 000e C046     		.align	2
 214              	.L17:
 215 0010 00000000 		.word	buffer
 216              		.cfi_endproc
 217              	.LFE37:
 218              		.size	HMC5883L_getSampleAveraging, .-HMC5883L_getSampleAveraging
 219              		.section	.text.HMC5883L_setSampleAveraging,"ax",%progbits
 220              		.align	2
 221              		.global	HMC5883L_setSampleAveraging
 222              		.code	16
 223              		.thumb_func
 224              		.type	HMC5883L_setSampleAveraging, %function
 225              	HMC5883L_setSampleAveraging:
 226              	.LFB38:
 112:.\hmc5883l.c  **** /** Set number of samples averaged per measurement.
 113:.\hmc5883l.c  ****  * @param averaging New samples averaged per measurement setting(0-3 for 1/2/4/8 respectively)
 114:.\hmc5883l.c  ****  * @see HMC5883L_RA_CONFIG_A
 115:.\hmc5883l.c  ****  * @see HMC5883L_CRA_AVERAGE_BIT
 116:.\hmc5883l.c  ****  * @see HMC5883L_CRA_AVERAGE_LENGTH
ARM GAS  C:\Users\Sam\AppData\Local\Temp\ccJjUaFv.s 			page 7


 117:.\hmc5883l.c  ****  */
 118:.\hmc5883l.c  **** void HMC5883L_setSampleAveraging(uint8_t averaging) {
 227              		.loc 1 118 0
 228              		.cfi_startproc
 229 0000 80B5     		push	{r7, lr}
 230              		.cfi_def_cfa_offset 8
 231              		.cfi_offset 7, -8
 232              		.cfi_offset 14, -4
 233 0002 82B0     		sub	sp, sp, #8
 234              		.cfi_def_cfa_offset 16
 235 0004 00AF     		add	r7, sp, #0
 236              		.cfi_def_cfa_register 7
 237 0006 021C     		mov	r2, r0
 238 0008 FB1D     		add	r3, r7, #7
 239 000a 1A70     		strb	r2, [r3]
 119:.\hmc5883l.c  ****     //I2Cdev::writeBits(devAddr, HMC5883L_RA_CONFIG_A, HMC5883L_CRA_AVERAGE_BIT, HMC5883L_CRA_AVERA
 120:.\hmc5883l.c  ****     asm("nop");
 240              		.loc 1 120 0
 241              	@ 120 ".\hmc5883l.c" 1
 242 000c C046     		nop
 243              	@ 0 "" 2
 121:.\hmc5883l.c  **** }
 244              		.loc 1 121 0
 245              		.code	16
 246 000e BD46     		mov	sp, r7
 247 0010 02B0     		add	sp, sp, #8
 248              		@ sp needed
 249 0012 80BD     		pop	{r7, pc}
 250              		.cfi_endproc
 251              	.LFE38:
 252              		.size	HMC5883L_setSampleAveraging, .-HMC5883L_setSampleAveraging
 253              		.section	.text.HMC5883L_getDataRate,"ax",%progbits
 254              		.align	2
 255              		.global	HMC5883L_getDataRate
 256              		.code	16
 257              		.thumb_func
 258              		.type	HMC5883L_getDataRate, %function
 259              	HMC5883L_getDataRate:
 260              	.LFB39:
 122:.\hmc5883l.c  **** /** Get data output rate value.
 123:.\hmc5883l.c  ****  * The Table below shows all selectable output rates in continuous measurement
 124:.\hmc5883l.c  ****  * mode. All three channels shall be measured within a given output rate. Other
 125:.\hmc5883l.c  ****  * output rates with maximum rate of 160 Hz can be achieved by monitoring DRDY
 126:.\hmc5883l.c  ****  * interrupt pin in single measurement mode.
 127:.\hmc5883l.c  ****  *
 128:.\hmc5883l.c  ****  * Value | Typical Data Output Rate (Hz)
 129:.\hmc5883l.c  ****  * ------+------------------------------
 130:.\hmc5883l.c  ****  * 0     | 0.75
 131:.\hmc5883l.c  ****  * 1     | 1.5
 132:.\hmc5883l.c  ****  * 2     | 3
 133:.\hmc5883l.c  ****  * 3     | 7.5
 134:.\hmc5883l.c  ****  * 4     | 15 (Default)
 135:.\hmc5883l.c  ****  * 5     | 30
 136:.\hmc5883l.c  ****  * 6     | 75
 137:.\hmc5883l.c  ****  * 7     | Not used
 138:.\hmc5883l.c  ****  *
 139:.\hmc5883l.c  ****  * @return Current rate of data output to registers
ARM GAS  C:\Users\Sam\AppData\Local\Temp\ccJjUaFv.s 			page 8


 140:.\hmc5883l.c  ****  * @see HMC5883L_RATE_15
 141:.\hmc5883l.c  ****  * @see HMC5883L_RA_CONFIG_A
 142:.\hmc5883l.c  ****  * @see HMC5883L_CRA_RATE_BIT
 143:.\hmc5883l.c  ****  * @see HMC5883L_CRA_RATE_LENGTH
 144:.\hmc5883l.c  ****  */
 145:.\hmc5883l.c  **** uint8_t HMC5883L_getDataRate() {
 261              		.loc 1 145 0
 262              		.cfi_startproc
 263 0000 80B5     		push	{r7, lr}
 264              		.cfi_def_cfa_offset 8
 265              		.cfi_offset 7, -8
 266              		.cfi_offset 14, -4
 267 0002 00AF     		add	r7, sp, #0
 268              		.cfi_def_cfa_register 7
 146:.\hmc5883l.c  ****     //I2Cdev::readBits(devAddr, HMC5883L_RA_CONFIG_A, HMC5883L_CRA_RATE_BIT, HMC5883L_CRA_RATE_LENG
 147:.\hmc5883l.c  ****     return buffer[0];
 269              		.loc 1 147 0
 270 0004 024B     		ldr	r3, .L22
 271 0006 1B78     		ldrb	r3, [r3]
 148:.\hmc5883l.c  **** }
 272              		.loc 1 148 0
 273 0008 181C     		mov	r0, r3
 274 000a BD46     		mov	sp, r7
 275              		@ sp needed
 276 000c 80BD     		pop	{r7, pc}
 277              	.L23:
 278 000e C046     		.align	2
 279              	.L22:
 280 0010 00000000 		.word	buffer
 281              		.cfi_endproc
 282              	.LFE39:
 283              		.size	HMC5883L_getDataRate, .-HMC5883L_getDataRate
 284              		.section	.text.HMC5883L_setDataRate,"ax",%progbits
 285              		.align	2
 286              		.global	HMC5883L_setDataRate
 287              		.code	16
 288              		.thumb_func
 289              		.type	HMC5883L_setDataRate, %function
 290              	HMC5883L_setDataRate:
 291              	.LFB40:
 149:.\hmc5883l.c  **** /** Set data output rate value.
 150:.\hmc5883l.c  ****  * @param rate Rate of data output to registers
 151:.\hmc5883l.c  ****  * @see getDataRate()
 152:.\hmc5883l.c  ****  * @see HMC5883L_RATE_15
 153:.\hmc5883l.c  ****  * @see HMC5883L_RA_CONFIG_A
 154:.\hmc5883l.c  ****  * @see HMC5883L_CRA_RATE_BIT
 155:.\hmc5883l.c  ****  * @see HMC5883L_CRA_RATE_LENGTH
 156:.\hmc5883l.c  ****  */
 157:.\hmc5883l.c  **** void HMC5883L_setDataRate(uint8_t rate) {
 292              		.loc 1 157 0
 293              		.cfi_startproc
 294 0000 80B5     		push	{r7, lr}
 295              		.cfi_def_cfa_offset 8
 296              		.cfi_offset 7, -8
 297              		.cfi_offset 14, -4
 298 0002 82B0     		sub	sp, sp, #8
 299              		.cfi_def_cfa_offset 16
ARM GAS  C:\Users\Sam\AppData\Local\Temp\ccJjUaFv.s 			page 9


 300 0004 00AF     		add	r7, sp, #0
 301              		.cfi_def_cfa_register 7
 302 0006 021C     		mov	r2, r0
 303 0008 FB1D     		add	r3, r7, #7
 304 000a 1A70     		strb	r2, [r3]
 158:.\hmc5883l.c  ****     //I2Cdev::writeBits(devAddr, HMC5883L_RA_CONFIG_A, HMC5883L_CRA_RATE_BIT, HMC5883L_CRA_RATE_LEN
 159:.\hmc5883l.c  **** }
 305              		.loc 1 159 0
 306 000c BD46     		mov	sp, r7
 307 000e 02B0     		add	sp, sp, #8
 308              		@ sp needed
 309 0010 80BD     		pop	{r7, pc}
 310              		.cfi_endproc
 311              	.LFE40:
 312              		.size	HMC5883L_setDataRate, .-HMC5883L_setDataRate
 313 0012 C046     		.section	.text.HMC5883L_getMeasurementBias,"ax",%progbits
 314              		.align	2
 315              		.global	HMC5883L_getMeasurementBias
 316              		.code	16
 317              		.thumb_func
 318              		.type	HMC5883L_getMeasurementBias, %function
 319              	HMC5883L_getMeasurementBias:
 320              	.LFB41:
 160:.\hmc5883l.c  **** /** Get measurement bias value.
 161:.\hmc5883l.c  ****  * @return Current bias value (0-2 for normal/positive/negative respectively)
 162:.\hmc5883l.c  ****  * @see HMC5883L_BIAS_NORMAL
 163:.\hmc5883l.c  ****  * @see HMC5883L_RA_CONFIG_A
 164:.\hmc5883l.c  ****  * @see HMC5883L_CRA_BIAS_BIT
 165:.\hmc5883l.c  ****  * @see HMC5883L_CRA_BIAS_LENGTH
 166:.\hmc5883l.c  ****  */
 167:.\hmc5883l.c  **** uint8_t HMC5883L_getMeasurementBias() {
 321              		.loc 1 167 0
 322              		.cfi_startproc
 323 0000 80B5     		push	{r7, lr}
 324              		.cfi_def_cfa_offset 8
 325              		.cfi_offset 7, -8
 326              		.cfi_offset 14, -4
 327 0002 00AF     		add	r7, sp, #0
 328              		.cfi_def_cfa_register 7
 168:.\hmc5883l.c  ****    //I2Cdev::readBits(devAddr, HMC5883L_RA_CONFIG_A, HMC5883L_CRA_BIAS_BIT, HMC5883L_CRA_BIAS_LENGT
 169:.\hmc5883l.c  ****     return buffer[0];
 329              		.loc 1 169 0
 330 0004 024B     		ldr	r3, .L27
 331 0006 1B78     		ldrb	r3, [r3]
 170:.\hmc5883l.c  **** }
 332              		.loc 1 170 0
 333 0008 181C     		mov	r0, r3
 334 000a BD46     		mov	sp, r7
 335              		@ sp needed
 336 000c 80BD     		pop	{r7, pc}
 337              	.L28:
 338 000e C046     		.align	2
 339              	.L27:
 340 0010 00000000 		.word	buffer
 341              		.cfi_endproc
 342              	.LFE41:
 343              		.size	HMC5883L_getMeasurementBias, .-HMC5883L_getMeasurementBias
ARM GAS  C:\Users\Sam\AppData\Local\Temp\ccJjUaFv.s 			page 10


 344              		.section	.text.HMC5883L_setMeasurementBias,"ax",%progbits
 345              		.align	2
 346              		.global	HMC5883L_setMeasurementBias
 347              		.code	16
 348              		.thumb_func
 349              		.type	HMC5883L_setMeasurementBias, %function
 350              	HMC5883L_setMeasurementBias:
 351              	.LFB42:
 171:.\hmc5883l.c  **** /** Set measurement bias value.
 172:.\hmc5883l.c  ****  * @param bias New bias value (0-2 for normal/positive/negative respectively)
 173:.\hmc5883l.c  ****  * @see HMC5883L_BIAS_NORMAL
 174:.\hmc5883l.c  ****  * @see HMC5883L_RA_CONFIG_A
 175:.\hmc5883l.c  ****  * @see HMC5883L_CRA_BIAS_BIT
 176:.\hmc5883l.c  ****  * @see HMC5883L_CRA_BIAS_LENGTH
 177:.\hmc5883l.c  ****  */
 178:.\hmc5883l.c  **** void HMC5883L_setMeasurementBias(uint8_t bias) {
 352              		.loc 1 178 0
 353              		.cfi_startproc
 354 0000 80B5     		push	{r7, lr}
 355              		.cfi_def_cfa_offset 8
 356              		.cfi_offset 7, -8
 357              		.cfi_offset 14, -4
 358 0002 82B0     		sub	sp, sp, #8
 359              		.cfi_def_cfa_offset 16
 360 0004 00AF     		add	r7, sp, #0
 361              		.cfi_def_cfa_register 7
 362 0006 021C     		mov	r2, r0
 363 0008 FB1D     		add	r3, r7, #7
 364 000a 1A70     		strb	r2, [r3]
 179:.\hmc5883l.c  ****     //I2Cdev::writeBits(devAddr, HMC5883L_RA_CONFIG_A, HMC5883L_CRA_BIAS_BIT, HMC5883L_CRA_BIAS_LEN
 180:.\hmc5883l.c  ****     asm("nop");
 365              		.loc 1 180 0
 366              	@ 180 ".\hmc5883l.c" 1
 367 000c C046     		nop
 368              	@ 0 "" 2
 181:.\hmc5883l.c  **** }
 369              		.loc 1 181 0
 370              		.code	16
 371 000e BD46     		mov	sp, r7
 372 0010 02B0     		add	sp, sp, #8
 373              		@ sp needed
 374 0012 80BD     		pop	{r7, pc}
 375              		.cfi_endproc
 376              	.LFE42:
 377              		.size	HMC5883L_setMeasurementBias, .-HMC5883L_setMeasurementBias
 378              		.section	.text.HMC5883L_getGain,"ax",%progbits
 379              		.align	2
 380              		.global	HMC5883L_getGain
 381              		.code	16
 382              		.thumb_func
 383              		.type	HMC5883L_getGain, %function
 384              	HMC5883L_getGain:
 385              	.LFB43:
 182:.\hmc5883l.c  **** 
 183:.\hmc5883l.c  **** // CONFIG_B register
 184:.\hmc5883l.c  **** 
 185:.\hmc5883l.c  **** /** Get magnetic field gain value.
ARM GAS  C:\Users\Sam\AppData\Local\Temp\ccJjUaFv.s 			page 11


 186:.\hmc5883l.c  ****  * The table below shows nominal gain settings. Use the "Gain" column to convert
 187:.\hmc5883l.c  ****  * counts to Gauss. Choose a lower gain value (higher GN#) when total field
 188:.\hmc5883l.c  ****  * strength causes overflow in one of the data output registers (saturation).
 189:.\hmc5883l.c  ****  * The data output range for all settings is 0xF800-0x07FF (-2048 - 2047).
 190:.\hmc5883l.c  ****  *
 191:.\hmc5883l.c  ****  * Value | Field Range | Gain (LSB/Gauss)
 192:.\hmc5883l.c  ****  * ------+-------------+-----------------
 193:.\hmc5883l.c  ****  * 0     | +/- 0.88 Ga | 1370
 194:.\hmc5883l.c  ****  * 1     | +/- 1.3 Ga  | 1090 (Default)
 195:.\hmc5883l.c  ****  * 2     | +/- 1.9 Ga  | 820
 196:.\hmc5883l.c  ****  * 3     | +/- 2.5 Ga  | 660
 197:.\hmc5883l.c  ****  * 4     | +/- 4.0 Ga  | 440
 198:.\hmc5883l.c  ****  * 5     | +/- 4.7 Ga  | 390
 199:.\hmc5883l.c  ****  * 6     | +/- 5.6 Ga  | 330
 200:.\hmc5883l.c  ****  * 7     | +/- 8.1 Ga  | 230
 201:.\hmc5883l.c  ****  *
 202:.\hmc5883l.c  ****  * @return Current magnetic field gain value
 203:.\hmc5883l.c  ****  * @see HMC5883L_GAIN_1090
 204:.\hmc5883l.c  ****  * @see HMC5883L_RA_CONFIG_B
 205:.\hmc5883l.c  ****  * @see HMC5883L_CRB_GAIN_BIT
 206:.\hmc5883l.c  ****  * @see HMC5883L_CRB_GAIN_LENGTH
 207:.\hmc5883l.c  ****  */
 208:.\hmc5883l.c  **** uint8_t HMC5883L_getGain() {
 386              		.loc 1 208 0
 387              		.cfi_startproc
 388 0000 80B5     		push	{r7, lr}
 389              		.cfi_def_cfa_offset 8
 390              		.cfi_offset 7, -8
 391              		.cfi_offset 14, -4
 392 0002 00AF     		add	r7, sp, #0
 393              		.cfi_def_cfa_register 7
 209:.\hmc5883l.c  ****     //I2Cdev::readBits(devAddr, HMC5883L_RA_CONFIG_B, HMC5883L_CRB_GAIN_BIT, HMC5883L_CRB_GAIN_LENG
 210:.\hmc5883l.c  ****     return buffer[0];
 394              		.loc 1 210 0
 395 0004 024B     		ldr	r3, .L32
 396 0006 1B78     		ldrb	r3, [r3]
 211:.\hmc5883l.c  **** }
 397              		.loc 1 211 0
 398 0008 181C     		mov	r0, r3
 399 000a BD46     		mov	sp, r7
 400              		@ sp needed
 401 000c 80BD     		pop	{r7, pc}
 402              	.L33:
 403 000e C046     		.align	2
 404              	.L32:
 405 0010 00000000 		.word	buffer
 406              		.cfi_endproc
 407              	.LFE43:
 408              		.size	HMC5883L_getGain, .-HMC5883L_getGain
 409              		.section	.text.HMC5883L_setGain,"ax",%progbits
 410              		.align	2
 411              		.global	HMC5883L_setGain
 412              		.code	16
 413              		.thumb_func
 414              		.type	HMC5883L_setGain, %function
 415              	HMC5883L_setGain:
 416              	.LFB44:
ARM GAS  C:\Users\Sam\AppData\Local\Temp\ccJjUaFv.s 			page 12


 212:.\hmc5883l.c  **** /** Set magnetic field gain value.
 213:.\hmc5883l.c  ****  * @param gain New magnetic field gain value
 214:.\hmc5883l.c  ****  * @see getGain()
 215:.\hmc5883l.c  ****  * @see HMC5883L_RA_CONFIG_B
 216:.\hmc5883l.c  ****  * @see HMC5883L_CRB_GAIN_BIT
 217:.\hmc5883l.c  ****  * @see HMC5883L_CRB_GAIN_LENGTH
 218:.\hmc5883l.c  ****  */
 219:.\hmc5883l.c  **** void HMC5883L_setGain(uint8_t gain) {
 417              		.loc 1 219 0
 418              		.cfi_startproc
 419 0000 80B5     		push	{r7, lr}
 420              		.cfi_def_cfa_offset 8
 421              		.cfi_offset 7, -8
 422              		.cfi_offset 14, -4
 423 0002 82B0     		sub	sp, sp, #8
 424              		.cfi_def_cfa_offset 16
 425 0004 00AF     		add	r7, sp, #0
 426              		.cfi_def_cfa_register 7
 427 0006 021C     		mov	r2, r0
 428 0008 FB1D     		add	r3, r7, #7
 429 000a 1A70     		strb	r2, [r3]
 220:.\hmc5883l.c  ****     // use this method to guarantee that bits 4-0 are set to zero, which is a
 221:.\hmc5883l.c  ****     // requirement specified in the datasheet; it's actually more efficient than
 222:.\hmc5883l.c  ****     // using the I2Cdev.writeBits method
 223:.\hmc5883l.c  ****     I2CWriteByte(devAddr, HMC5883L_RA_CONFIG_B, gain << (HMC5883L_CRB_GAIN_BIT - HMC5883L_CRB_GAIN_
 430              		.loc 1 223 0
 431 000c 064B     		ldr	r3, .L35
 432 000e 1A78     		ldrb	r2, [r3]
 433 0010 FB1D     		add	r3, r7, #7
 434 0012 1B78     		ldrb	r3, [r3]
 435 0014 5B01     		lsl	r3, r3, #5
 436 0016 DBB2     		uxtb	r3, r3
 437 0018 101C     		mov	r0, r2
 438 001a 0121     		mov	r1, #1
 439 001c 1A1C     		mov	r2, r3
 440 001e FFF7FEFF 		bl	I2CWriteByte
 224:.\hmc5883l.c  **** }
 441              		.loc 1 224 0
 442 0022 BD46     		mov	sp, r7
 443 0024 02B0     		add	sp, sp, #8
 444              		@ sp needed
 445 0026 80BD     		pop	{r7, pc}
 446              	.L36:
 447              		.align	2
 448              	.L35:
 449 0028 00000000 		.word	devAddr
 450              		.cfi_endproc
 451              	.LFE44:
 452              		.size	HMC5883L_setGain, .-HMC5883L_setGain
 453              		.section	.text.HMC5883L_getMode,"ax",%progbits
 454              		.align	2
 455              		.global	HMC5883L_getMode
 456              		.code	16
 457              		.thumb_func
 458              		.type	HMC5883L_getMode, %function
 459              	HMC5883L_getMode:
 460              	.LFB45:
ARM GAS  C:\Users\Sam\AppData\Local\Temp\ccJjUaFv.s 			page 13


 225:.\hmc5883l.c  **** 
 226:.\hmc5883l.c  **** // MODE register
 227:.\hmc5883l.c  **** 
 228:.\hmc5883l.c  **** /** Get measurement mode.
 229:.\hmc5883l.c  ****  * In continuous-measurement mode, the device continuously performs measurements
 230:.\hmc5883l.c  ****  * and places the result in the data register. RDY goes high when new data is
 231:.\hmc5883l.c  ****  * placed in all three registers. After a power-on or a write to the mode or
 232:.\hmc5883l.c  ****  * configuration register, the first measurement set is available from all three
 233:.\hmc5883l.c  ****  * data output registers after a period of 2/fDO and subsequent measurements are
 234:.\hmc5883l.c  ****  * available at a frequency of fDO, where fDO is the frequency of data output.
 235:.\hmc5883l.c  ****  *
 236:.\hmc5883l.c  ****  * When single-measurement mode (default) is selected, device performs a single
 237:.\hmc5883l.c  ****  * measurement, sets RDY high and returned to idle mode. Mode register returns
 238:.\hmc5883l.c  ****  * to idle mode bit values. The measurement remains in the data output register
 239:.\hmc5883l.c  ****  * and RDY remains high until the data output register is read or another
 240:.\hmc5883l.c  ****  * measurement is performed.
 241:.\hmc5883l.c  ****  *
 242:.\hmc5883l.c  ****  * @return Current measurement mode
 243:.\hmc5883l.c  ****  * @see HMC5883L_MODE_CONTINUOUS
 244:.\hmc5883l.c  ****  * @see HMC5883L_MODE_SINGLE
 245:.\hmc5883l.c  ****  * @see HMC5883L_MODE_IDLE
 246:.\hmc5883l.c  ****  * @see HMC5883L_RA_MODE
 247:.\hmc5883l.c  ****  * @see HMC5883L_MODEREG_BIT
 248:.\hmc5883l.c  ****  * @see HMC5883L_MODEREG_LENGTH
 249:.\hmc5883l.c  ****  */
 250:.\hmc5883l.c  **** uint8_t HMC5883L_getMode() {
 461              		.loc 1 250 0
 462              		.cfi_startproc
 463 0000 80B5     		push	{r7, lr}
 464              		.cfi_def_cfa_offset 8
 465              		.cfi_offset 7, -8
 466              		.cfi_offset 14, -4
 467 0002 00AF     		add	r7, sp, #0
 468              		.cfi_def_cfa_register 7
 251:.\hmc5883l.c  ****     //I2Cdev::readBits(devAddr, HMC5883L_RA_MODE, HMC5883L_MODEREG_BIT, HMC5883L_MODEREG_LENGTH, bu
 252:.\hmc5883l.c  ****     return buffer[0];
 469              		.loc 1 252 0
 470 0004 024B     		ldr	r3, .L39
 471 0006 1B78     		ldrb	r3, [r3]
 253:.\hmc5883l.c  **** }
 472              		.loc 1 253 0
 473 0008 181C     		mov	r0, r3
 474 000a BD46     		mov	sp, r7
 475              		@ sp needed
 476 000c 80BD     		pop	{r7, pc}
 477              	.L40:
 478 000e C046     		.align	2
 479              	.L39:
 480 0010 00000000 		.word	buffer
 481              		.cfi_endproc
 482              	.LFE45:
 483              		.size	HMC5883L_getMode, .-HMC5883L_getMode
 484              		.section	.text.HMC5883L_setMode,"ax",%progbits
 485              		.align	2
 486              		.global	HMC5883L_setMode
 487              		.code	16
 488              		.thumb_func
ARM GAS  C:\Users\Sam\AppData\Local\Temp\ccJjUaFv.s 			page 14


 489              		.type	HMC5883L_setMode, %function
 490              	HMC5883L_setMode:
 491              	.LFB46:
 254:.\hmc5883l.c  **** /** Set measurement mode.
 255:.\hmc5883l.c  ****  * @param newMode New measurement mode
 256:.\hmc5883l.c  ****  * @see getMode()
 257:.\hmc5883l.c  ****  * @see HMC5883L_MODE_CONTINUOUS
 258:.\hmc5883l.c  ****  * @see HMC5883L_MODE_SINGLE
 259:.\hmc5883l.c  ****  * @see HMC5883L_MODE_IDLE
 260:.\hmc5883l.c  ****  * @see HMC5883L_RA_MODE
 261:.\hmc5883l.c  ****  * @see HMC5883L_MODEREG_BIT
 262:.\hmc5883l.c  ****  * @see HMC5883L_MODEREG_LENGTH
 263:.\hmc5883l.c  ****  */
 264:.\hmc5883l.c  **** void HMC5883L_setMode(uint8_t newMode) {
 492              		.loc 1 264 0
 493              		.cfi_startproc
 494 0000 80B5     		push	{r7, lr}
 495              		.cfi_def_cfa_offset 8
 496              		.cfi_offset 7, -8
 497              		.cfi_offset 14, -4
 498 0002 82B0     		sub	sp, sp, #8
 499              		.cfi_def_cfa_offset 16
 500 0004 00AF     		add	r7, sp, #0
 501              		.cfi_def_cfa_register 7
 502 0006 021C     		mov	r2, r0
 503 0008 FB1D     		add	r3, r7, #7
 504 000a 1A70     		strb	r2, [r3]
 265:.\hmc5883l.c  ****     // use this method to guarantee that bits 7-2 are set to zero, which is a
 266:.\hmc5883l.c  ****     // requirement specified in the datasheet; it's actually more efficient than
 267:.\hmc5883l.c  ****     // using the I2Cdev.writeBits method
 268:.\hmc5883l.c  ****     I2CWriteByte(devAddr, HMC5883L_RA_MODE, newMode << (HMC5883L_MODEREG_BIT - HMC5883L_MODEREG_LEN
 505              		.loc 1 268 0
 506 000c 074B     		ldr	r3, .L42
 507 000e 1A78     		ldrb	r2, [r3]
 508 0010 FB1D     		add	r3, r7, #7
 509 0012 1B78     		ldrb	r3, [r3]
 510 0014 101C     		mov	r0, r2
 511 0016 0221     		mov	r1, #2
 512 0018 1A1C     		mov	r2, r3
 513 001a FFF7FEFF 		bl	I2CWriteByte
 269:.\hmc5883l.c  ****     mode = newMode; // track to tell if we have to clear bit 7 after a read
 514              		.loc 1 269 0
 515 001e 044B     		ldr	r3, .L42+4
 516 0020 FA1D     		add	r2, r7, #7
 517 0022 1278     		ldrb	r2, [r2]
 518 0024 1A70     		strb	r2, [r3]
 270:.\hmc5883l.c  **** }
 519              		.loc 1 270 0
 520 0026 BD46     		mov	sp, r7
 521 0028 02B0     		add	sp, sp, #8
 522              		@ sp needed
 523 002a 80BD     		pop	{r7, pc}
 524              	.L43:
 525              		.align	2
 526              	.L42:
 527 002c 00000000 		.word	devAddr
 528 0030 00000000 		.word	mode
ARM GAS  C:\Users\Sam\AppData\Local\Temp\ccJjUaFv.s 			page 15


 529              		.cfi_endproc
 530              	.LFE46:
 531              		.size	HMC5883L_setMode, .-HMC5883L_setMode
 532              		.section	.text.HMC5883L_getHeading,"ax",%progbits
 533              		.align	2
 534              		.global	HMC5883L_getHeading
 535              		.code	16
 536              		.thumb_func
 537              		.type	HMC5883L_getHeading, %function
 538              	HMC5883L_getHeading:
 539              	.LFB47:
 271:.\hmc5883l.c  **** 
 272:.\hmc5883l.c  **** // DATA* registers
 273:.\hmc5883l.c  **** 
 274:.\hmc5883l.c  **** /** Get 3-axis heading measurements.
 275:.\hmc5883l.c  ****  * In the event the ADC reading overflows or underflows for the given channel,
 276:.\hmc5883l.c  ****  * or if there is a math overflow during the bias measurement, this data
 277:.\hmc5883l.c  ****  * register will contain the value -4096. This register value will clear when
 278:.\hmc5883l.c  ****  * after the next valid measurement is made. Note that this method automatically
 279:.\hmc5883l.c  ****  * clears the appropriate bit in the MODE register if Single mode is active.
 280:.\hmc5883l.c  ****  * @param x 16-bit signed integer container for X-axis heading
 281:.\hmc5883l.c  ****  * @param y 16-bit signed integer container for Y-axis heading
 282:.\hmc5883l.c  ****  * @param z 16-bit signed integer container for Z-axis heading
 283:.\hmc5883l.c  ****  * @see HMC5883L_RA_DATAX_H
 284:.\hmc5883l.c  ****  */
 285:.\hmc5883l.c  **** void HMC5883L_getHeading(int16_t *x, int16_t *y, int16_t *z) {
 540              		.loc 1 285 0
 541              		.cfi_startproc
 542 0000 80B5     		push	{r7, lr}
 543              		.cfi_def_cfa_offset 8
 544              		.cfi_offset 7, -8
 545              		.cfi_offset 14, -4
 546 0002 84B0     		sub	sp, sp, #16
 547              		.cfi_def_cfa_offset 24
 548 0004 00AF     		add	r7, sp, #0
 549              		.cfi_def_cfa_register 7
 550 0006 F860     		str	r0, [r7, #12]
 551 0008 B960     		str	r1, [r7, #8]
 552 000a 7A60     		str	r2, [r7, #4]
 286:.\hmc5883l.c  ****     I2CReadBytes(devAddr, HMC5883L_RA_DATAX_H, 6, buffer);
 553              		.loc 1 286 0
 554 000c 194B     		ldr	r3, .L46
 555 000e 1A78     		ldrb	r2, [r3]
 556 0010 194B     		ldr	r3, .L46+4
 557 0012 101C     		mov	r0, r2
 558 0014 0321     		mov	r1, #3
 559 0016 0622     		mov	r2, #6
 560 0018 FFF7FEFF 		bl	I2CReadBytes
 287:.\hmc5883l.c  ****     if(mode == HMC5883L_MODE_SINGLE) I2CWriteByte(devAddr, HMC5883L_RA_MODE, HMC5883L_MODE_SINGLE <
 561              		.loc 1 287 0
 562 001c 174B     		ldr	r3, .L46+8
 563 001e 1B78     		ldrb	r3, [r3]
 564 0020 012B     		cmp	r3, #1
 565 0022 06D1     		bne	.L45
 566              		.loc 1 287 0 is_stmt 0 discriminator 1
 567 0024 134B     		ldr	r3, .L46
 568 0026 1B78     		ldrb	r3, [r3]
ARM GAS  C:\Users\Sam\AppData\Local\Temp\ccJjUaFv.s 			page 16


 569 0028 181C     		mov	r0, r3
 570 002a 0221     		mov	r1, #2
 571 002c 0122     		mov	r2, #1
 572 002e FFF7FEFF 		bl	I2CWriteByte
 573              	.L45:
 288:.\hmc5883l.c  ****     *x = (((int16_t)buffer[0]) << 8) | buffer[1];
 574              		.loc 1 288 0 is_stmt 1
 575 0032 114B     		ldr	r3, .L46+4
 576 0034 1B78     		ldrb	r3, [r3]
 577 0036 1B02     		lsl	r3, r3, #8
 578 0038 9AB2     		uxth	r2, r3
 579 003a 0F4B     		ldr	r3, .L46+4
 580 003c 5B78     		ldrb	r3, [r3, #1]
 581 003e 1343     		orr	r3, r2
 582 0040 9AB2     		uxth	r2, r3
 583 0042 FB68     		ldr	r3, [r7, #12]
 584 0044 1A80     		strh	r2, [r3]
 289:.\hmc5883l.c  ****     *y = (((int16_t)buffer[4]) << 8) | buffer[5];
 585              		.loc 1 289 0
 586 0046 0C4B     		ldr	r3, .L46+4
 587 0048 1B79     		ldrb	r3, [r3, #4]
 588 004a 1B02     		lsl	r3, r3, #8
 589 004c 9AB2     		uxth	r2, r3
 590 004e 0A4B     		ldr	r3, .L46+4
 591 0050 5B79     		ldrb	r3, [r3, #5]
 592 0052 1343     		orr	r3, r2
 593 0054 9AB2     		uxth	r2, r3
 594 0056 BB68     		ldr	r3, [r7, #8]
 595 0058 1A80     		strh	r2, [r3]
 290:.\hmc5883l.c  ****     *z = (((int16_t)buffer[2]) << 8) | buffer[3];
 596              		.loc 1 290 0
 597 005a 074B     		ldr	r3, .L46+4
 598 005c 9B78     		ldrb	r3, [r3, #2]
 599 005e 1B02     		lsl	r3, r3, #8
 600 0060 9AB2     		uxth	r2, r3
 601 0062 054B     		ldr	r3, .L46+4
 602 0064 DB78     		ldrb	r3, [r3, #3]
 603 0066 1343     		orr	r3, r2
 604 0068 9AB2     		uxth	r2, r3
 605 006a 7B68     		ldr	r3, [r7, #4]
 606 006c 1A80     		strh	r2, [r3]
 291:.\hmc5883l.c  **** }
 607              		.loc 1 291 0
 608 006e BD46     		mov	sp, r7
 609 0070 04B0     		add	sp, sp, #16
 610              		@ sp needed
 611 0072 80BD     		pop	{r7, pc}
 612              	.L47:
 613              		.align	2
 614              	.L46:
 615 0074 00000000 		.word	devAddr
 616 0078 00000000 		.word	buffer
 617 007c 00000000 		.word	mode
 618              		.cfi_endproc
 619              	.LFE47:
 620              		.size	HMC5883L_getHeading, .-HMC5883L_getHeading
 621              		.section	.text.HMC5883L_getHeadingX,"ax",%progbits
ARM GAS  C:\Users\Sam\AppData\Local\Temp\ccJjUaFv.s 			page 17


 622              		.align	2
 623              		.global	HMC5883L_getHeadingX
 624              		.code	16
 625              		.thumb_func
 626              		.type	HMC5883L_getHeadingX, %function
 627              	HMC5883L_getHeadingX:
 628              	.LFB48:
 292:.\hmc5883l.c  **** /** Get X-axis heading measurement.
 293:.\hmc5883l.c  ****  * @return 16-bit signed integer with X-axis heading
 294:.\hmc5883l.c  ****  * @see HMC5883L_RA_DATAX_H
 295:.\hmc5883l.c  ****  */
 296:.\hmc5883l.c  **** int16_t HMC5883L_getHeadingX() {
 629              		.loc 1 296 0
 630              		.cfi_startproc
 631 0000 80B5     		push	{r7, lr}
 632              		.cfi_def_cfa_offset 8
 633              		.cfi_offset 7, -8
 634              		.cfi_offset 14, -4
 635 0002 00AF     		add	r7, sp, #0
 636              		.cfi_def_cfa_register 7
 297:.\hmc5883l.c  ****     // each axis read requires that ALL axis registers be read, even if only
 298:.\hmc5883l.c  ****     // one is used; this was not done ineffiently in the code by accident
 299:.\hmc5883l.c  ****    //I2Cdev::readBytes(devAddr, HMC5883L_RA_DATAX_H, 6, buffer);
 300:.\hmc5883l.c  ****    // if (mode == HMC5883L_MODE_SINGLE) I2Cdev::writeByte(devAddr, HMC5883L_RA_MODE, HMC5883L_MODE_
 301:.\hmc5883l.c  ****    // return (((int16_t)buffer[0]) << 8) | buffer[1];
 302:.\hmc5883l.c  **** }
 637              		.loc 1 302 0
 638 0004 181C     		mov	r0, r3
 639 0006 BD46     		mov	sp, r7
 640              		@ sp needed
 641 0008 80BD     		pop	{r7, pc}
 642              		.cfi_endproc
 643              	.LFE48:
 644              		.size	HMC5883L_getHeadingX, .-HMC5883L_getHeadingX
 645 000a C046     		.section	.text.HMC5883L_getHeadingY,"ax",%progbits
 646              		.align	2
 647              		.global	HMC5883L_getHeadingY
 648              		.code	16
 649              		.thumb_func
 650              		.type	HMC5883L_getHeadingY, %function
 651              	HMC5883L_getHeadingY:
 652              	.LFB49:
 303:.\hmc5883l.c  **** /** Get Y-axis heading measurement.
 304:.\hmc5883l.c  ****  * @return 16-bit signed integer with Y-axis heading
 305:.\hmc5883l.c  ****  * @see HMC5883L_RA_DATAY_H
 306:.\hmc5883l.c  ****  */
 307:.\hmc5883l.c  **** int16_t HMC5883L_getHeadingY() {
 653              		.loc 1 307 0
 654              		.cfi_startproc
 655 0000 80B5     		push	{r7, lr}
 656              		.cfi_def_cfa_offset 8
 657              		.cfi_offset 7, -8
 658              		.cfi_offset 14, -4
 659 0002 00AF     		add	r7, sp, #0
 660              		.cfi_def_cfa_register 7
 308:.\hmc5883l.c  ****     // each axis read requires that ALL axis registers be read, even if only
 309:.\hmc5883l.c  ****     // one is used; this was not done ineffiently in the code by accident
ARM GAS  C:\Users\Sam\AppData\Local\Temp\ccJjUaFv.s 			page 18


 310:.\hmc5883l.c  ****     //I2Cdev::readBytes(devAddr, HMC5883L_RA_DATAX_H, 6, buffer);
 311:.\hmc5883l.c  ****     //if (mode == HMC5883L_MODE_SINGLE) I2Cdev::writeByte(devAddr, HMC5883L_RA_MODE, HMC5883L_MODE_
 312:.\hmc5883l.c  ****     //return (((int16_t)buffer[4]) << 8) | buffer[5];
 313:.\hmc5883l.c  **** }
 661              		.loc 1 313 0
 662 0004 181C     		mov	r0, r3
 663 0006 BD46     		mov	sp, r7
 664              		@ sp needed
 665 0008 80BD     		pop	{r7, pc}
 666              		.cfi_endproc
 667              	.LFE49:
 668              		.size	HMC5883L_getHeadingY, .-HMC5883L_getHeadingY
 669 000a C046     		.section	.text.HMC5883L_getHeadingZ,"ax",%progbits
 670              		.align	2
 671              		.global	HMC5883L_getHeadingZ
 672              		.code	16
 673              		.thumb_func
 674              		.type	HMC5883L_getHeadingZ, %function
 675              	HMC5883L_getHeadingZ:
 676              	.LFB50:
 314:.\hmc5883l.c  **** /** Get Z-axis heading measurement.
 315:.\hmc5883l.c  ****  * @return 16-bit signed integer with Z-axis heading
 316:.\hmc5883l.c  ****  * @see HMC5883L_RA_DATAZ_H
 317:.\hmc5883l.c  ****  */
 318:.\hmc5883l.c  **** int16_t HMC5883L_getHeadingZ() {
 677              		.loc 1 318 0
 678              		.cfi_startproc
 679 0000 80B5     		push	{r7, lr}
 680              		.cfi_def_cfa_offset 8
 681              		.cfi_offset 7, -8
 682              		.cfi_offset 14, -4
 683 0002 00AF     		add	r7, sp, #0
 684              		.cfi_def_cfa_register 7
 319:.\hmc5883l.c  ****     // each axis read requires that ALL axis registers be read, even if only
 320:.\hmc5883l.c  ****     // one is used; this was not done ineffiently in the code by accident
 321:.\hmc5883l.c  ****     //I2Cdev::readBytes(devAddr, HMC5883L_RA_DATAX_H, 6, buffer);
 322:.\hmc5883l.c  ****     //if (mode == HMC5883L_MODE_SINGLE) I2Cdev::writeByte(devAddr, HMC5883L_RA_MODE, HMC5883L_MODE_
 323:.\hmc5883l.c  ****     //return (((int16_t)buffer[2]) << 8) | buffer[3];
 324:.\hmc5883l.c  **** }
 685              		.loc 1 324 0
 686 0004 181C     		mov	r0, r3
 687 0006 BD46     		mov	sp, r7
 688              		@ sp needed
 689 0008 80BD     		pop	{r7, pc}
 690              		.cfi_endproc
 691              	.LFE50:
 692              		.size	HMC5883L_getHeadingZ, .-HMC5883L_getHeadingZ
 693 000a C046     		.section	.text.HMC5883L_getLockStatus,"ax",%progbits
 694              		.align	2
 695              		.global	HMC5883L_getLockStatus
 696              		.code	16
 697              		.thumb_func
 698              		.type	HMC5883L_getLockStatus, %function
 699              	HMC5883L_getLockStatus:
 700              	.LFB51:
 325:.\hmc5883l.c  **** 
 326:.\hmc5883l.c  **** // STATUS register
ARM GAS  C:\Users\Sam\AppData\Local\Temp\ccJjUaFv.s 			page 19


 327:.\hmc5883l.c  **** 
 328:.\hmc5883l.c  **** /** Get data output register lock status.
 329:.\hmc5883l.c  ****  * This bit is set when this some but not all for of the six data output
 330:.\hmc5883l.c  ****  * registers have been read. When this bit is set, the six data output registers
 331:.\hmc5883l.c  ****  * are locked and any new data will not be placed in these register until one of
 332:.\hmc5883l.c  ****  * three conditions are met: one, all six bytes have been read or the mode
 333:.\hmc5883l.c  ****  * changed, two, the mode is changed, or three, the measurement configuration is
 334:.\hmc5883l.c  ****  * changed.
 335:.\hmc5883l.c  ****  * @return Data output register lock status
 336:.\hmc5883l.c  ****  * @see HMC5883L_RA_STATUS
 337:.\hmc5883l.c  ****  * @see HMC5883L_STATUS_LOCK_BIT
 338:.\hmc5883l.c  ****  */
 339:.\hmc5883l.c  **** bool HMC5883L_getLockStatus() {
 701              		.loc 1 339 0
 702              		.cfi_startproc
 703 0000 80B5     		push	{r7, lr}
 704              		.cfi_def_cfa_offset 8
 705              		.cfi_offset 7, -8
 706              		.cfi_offset 14, -4
 707 0002 00AF     		add	r7, sp, #0
 708              		.cfi_def_cfa_register 7
 340:.\hmc5883l.c  ****     //I2Cdev::readBit(devAddr, HMC5883L_RA_STATUS, HMC5883L_STATUS_LOCK_BIT, buffer);
 341:.\hmc5883l.c  ****     //return buffer[0];
 342:.\hmc5883l.c  **** }
 709              		.loc 1 342 0
 710 0004 181C     		mov	r0, r3
 711 0006 BD46     		mov	sp, r7
 712              		@ sp needed
 713 0008 80BD     		pop	{r7, pc}
 714              		.cfi_endproc
 715              	.LFE51:
 716              		.size	HMC5883L_getLockStatus, .-HMC5883L_getLockStatus
 717 000a C046     		.section	.text.HMC5883L_getReadyStatus,"ax",%progbits
 718              		.align	2
 719              		.global	HMC5883L_getReadyStatus
 720              		.code	16
 721              		.thumb_func
 722              		.type	HMC5883L_getReadyStatus, %function
 723              	HMC5883L_getReadyStatus:
 724              	.LFB52:
 343:.\hmc5883l.c  **** /** Get data ready status.
 344:.\hmc5883l.c  ****  * This bit is set when data is written to all six data registers, and cleared
 345:.\hmc5883l.c  ****  * when the device initiates a write to the data output registers and after one
 346:.\hmc5883l.c  ****  * or more of the data output registers are written to. When RDY bit is clear it
 347:.\hmc5883l.c  ****  * shall remain cleared for 250 us. DRDY pin can be used as an alternative to
 348:.\hmc5883l.c  ****  * the status register for monitoring the device for measurement data.
 349:.\hmc5883l.c  ****  * @return Data ready status
 350:.\hmc5883l.c  ****  * @see HMC5883L_RA_STATUS
 351:.\hmc5883l.c  ****  * @see HMC5883L_STATUS_READY_BIT
 352:.\hmc5883l.c  ****  */
 353:.\hmc5883l.c  **** bool HMC5883L_getReadyStatus() {
 725              		.loc 1 353 0
 726              		.cfi_startproc
 727 0000 80B5     		push	{r7, lr}
 728              		.cfi_def_cfa_offset 8
 729              		.cfi_offset 7, -8
 730              		.cfi_offset 14, -4
ARM GAS  C:\Users\Sam\AppData\Local\Temp\ccJjUaFv.s 			page 20


 731 0002 00AF     		add	r7, sp, #0
 732              		.cfi_def_cfa_register 7
 354:.\hmc5883l.c  ****     I2CReadBit(devAddr, HMC5883L_RA_STATUS, HMC5883L_STATUS_READY_BIT, buffer);
 733              		.loc 1 354 0
 734 0004 074B     		ldr	r3, .L54
 735 0006 1A78     		ldrb	r2, [r3]
 736 0008 074B     		ldr	r3, .L54+4
 737 000a 101C     		mov	r0, r2
 738 000c 0921     		mov	r1, #9
 739 000e 0022     		mov	r2, #0
 740 0010 FFF7FEFF 		bl	I2CReadBit
 355:.\hmc5883l.c  ****     return buffer[0];
 741              		.loc 1 355 0
 742 0014 044B     		ldr	r3, .L54+4
 743 0016 1B78     		ldrb	r3, [r3]
 744 0018 5A1E     		sub	r2, r3, #1
 745 001a 9341     		sbc	r3, r3, r2
 746 001c DBB2     		uxtb	r3, r3
 356:.\hmc5883l.c  **** }
 747              		.loc 1 356 0
 748 001e 181C     		mov	r0, r3
 749 0020 BD46     		mov	sp, r7
 750              		@ sp needed
 751 0022 80BD     		pop	{r7, pc}
 752              	.L55:
 753              		.align	2
 754              	.L54:
 755 0024 00000000 		.word	devAddr
 756 0028 00000000 		.word	buffer
 757              		.cfi_endproc
 758              	.LFE52:
 759              		.size	HMC5883L_getReadyStatus, .-HMC5883L_getReadyStatus
 760              		.section	.text.HMC5883L_getIDA,"ax",%progbits
 761              		.align	2
 762              		.global	HMC5883L_getIDA
 763              		.code	16
 764              		.thumb_func
 765              		.type	HMC5883L_getIDA, %function
 766              	HMC5883L_getIDA:
 767              	.LFB53:
 357:.\hmc5883l.c  **** 
 358:.\hmc5883l.c  **** // ID_* registers
 359:.\hmc5883l.c  **** 
 360:.\hmc5883l.c  **** /** Get identification byte A
 361:.\hmc5883l.c  ****  * @return ID_A byte (should be 01001000, ASCII value 'H')
 362:.\hmc5883l.c  ****  */
 363:.\hmc5883l.c  **** uint8_t HMC5883L_getIDA() {
 768              		.loc 1 363 0
 769              		.cfi_startproc
 770 0000 80B5     		push	{r7, lr}
 771              		.cfi_def_cfa_offset 8
 772              		.cfi_offset 7, -8
 773              		.cfi_offset 14, -4
 774 0002 00AF     		add	r7, sp, #0
 775              		.cfi_def_cfa_register 7
 364:.\hmc5883l.c  ****     I2CReadByte(devAddr, HMC5883L_RA_ID_A, buffer);
 776              		.loc 1 364 0
ARM GAS  C:\Users\Sam\AppData\Local\Temp\ccJjUaFv.s 			page 21


 777 0004 064B     		ldr	r3, .L58
 778 0006 1A78     		ldrb	r2, [r3]
 779 0008 064B     		ldr	r3, .L58+4
 780 000a 101C     		mov	r0, r2
 781 000c 0A21     		mov	r1, #10
 782 000e 1A1C     		mov	r2, r3
 783 0010 FFF7FEFF 		bl	I2CReadByte
 365:.\hmc5883l.c  ****     return buffer[0];
 784              		.loc 1 365 0
 785 0014 034B     		ldr	r3, .L58+4
 786 0016 1B78     		ldrb	r3, [r3]
 366:.\hmc5883l.c  **** }
 787              		.loc 1 366 0
 788 0018 181C     		mov	r0, r3
 789 001a BD46     		mov	sp, r7
 790              		@ sp needed
 791 001c 80BD     		pop	{r7, pc}
 792              	.L59:
 793 001e C046     		.align	2
 794              	.L58:
 795 0020 00000000 		.word	devAddr
 796 0024 00000000 		.word	buffer
 797              		.cfi_endproc
 798              	.LFE53:
 799              		.size	HMC5883L_getIDA, .-HMC5883L_getIDA
 800              		.section	.text.HMC5883L_getIDB,"ax",%progbits
 801              		.align	2
 802              		.global	HMC5883L_getIDB
 803              		.code	16
 804              		.thumb_func
 805              		.type	HMC5883L_getIDB, %function
 806              	HMC5883L_getIDB:
 807              	.LFB54:
 367:.\hmc5883l.c  **** /** Get identification byte B
 368:.\hmc5883l.c  ****  * @return ID_A byte (should be 00110100, ASCII value '4')
 369:.\hmc5883l.c  ****  */
 370:.\hmc5883l.c  **** uint8_t HMC5883L_getIDB() {
 808              		.loc 1 370 0
 809              		.cfi_startproc
 810 0000 80B5     		push	{r7, lr}
 811              		.cfi_def_cfa_offset 8
 812              		.cfi_offset 7, -8
 813              		.cfi_offset 14, -4
 814 0002 00AF     		add	r7, sp, #0
 815              		.cfi_def_cfa_register 7
 371:.\hmc5883l.c  ****     I2CReadByte(devAddr, HMC5883L_RA_ID_B, buffer);
 816              		.loc 1 371 0
 817 0004 064B     		ldr	r3, .L62
 818 0006 1A78     		ldrb	r2, [r3]
 819 0008 064B     		ldr	r3, .L62+4
 820 000a 101C     		mov	r0, r2
 821 000c 0B21     		mov	r1, #11
 822 000e 1A1C     		mov	r2, r3
 823 0010 FFF7FEFF 		bl	I2CReadByte
 372:.\hmc5883l.c  ****     return buffer[0];
 824              		.loc 1 372 0
 825 0014 034B     		ldr	r3, .L62+4
ARM GAS  C:\Users\Sam\AppData\Local\Temp\ccJjUaFv.s 			page 22


 826 0016 1B78     		ldrb	r3, [r3]
 373:.\hmc5883l.c  **** }
 827              		.loc 1 373 0
 828 0018 181C     		mov	r0, r3
 829 001a BD46     		mov	sp, r7
 830              		@ sp needed
 831 001c 80BD     		pop	{r7, pc}
 832              	.L63:
 833 001e C046     		.align	2
 834              	.L62:
 835 0020 00000000 		.word	devAddr
 836 0024 00000000 		.word	buffer
 837              		.cfi_endproc
 838              	.LFE54:
 839              		.size	HMC5883L_getIDB, .-HMC5883L_getIDB
 840              		.section	.text.HMC5883L_getIDC,"ax",%progbits
 841              		.align	2
 842              		.global	HMC5883L_getIDC
 843              		.code	16
 844              		.thumb_func
 845              		.type	HMC5883L_getIDC, %function
 846              	HMC5883L_getIDC:
 847              	.LFB55:
 374:.\hmc5883l.c  **** /** Get identification byte C
 375:.\hmc5883l.c  ****  * @return ID_A byte (should be 00110011, ASCII value '3')
 376:.\hmc5883l.c  ****  */
 377:.\hmc5883l.c  **** uint8_t HMC5883L_getIDC() {
 848              		.loc 1 377 0
 849              		.cfi_startproc
 850 0000 80B5     		push	{r7, lr}
 851              		.cfi_def_cfa_offset 8
 852              		.cfi_offset 7, -8
 853              		.cfi_offset 14, -4
 854 0002 00AF     		add	r7, sp, #0
 855              		.cfi_def_cfa_register 7
 378:.\hmc5883l.c  ****     I2CReadByte(devAddr, HMC5883L_RA_ID_C, buffer);
 856              		.loc 1 378 0
 857 0004 064B     		ldr	r3, .L66
 858 0006 1A78     		ldrb	r2, [r3]
 859 0008 064B     		ldr	r3, .L66+4
 860 000a 101C     		mov	r0, r2
 861 000c 0C21     		mov	r1, #12
 862 000e 1A1C     		mov	r2, r3
 863 0010 FFF7FEFF 		bl	I2CReadByte
 379:.\hmc5883l.c  ****     return buffer[0];
 864              		.loc 1 379 0
 865 0014 034B     		ldr	r3, .L66+4
 866 0016 1B78     		ldrb	r3, [r3]
 380:.\hmc5883l.c  **** }
 867              		.loc 1 380 0
 868 0018 181C     		mov	r0, r3
 869 001a BD46     		mov	sp, r7
 870              		@ sp needed
 871 001c 80BD     		pop	{r7, pc}
 872              	.L67:
 873 001e C046     		.align	2
 874              	.L66:
ARM GAS  C:\Users\Sam\AppData\Local\Temp\ccJjUaFv.s 			page 23


 875 0020 00000000 		.word	devAddr
 876 0024 00000000 		.word	buffer
 877              		.cfi_endproc
 878              	.LFE55:
 879              		.size	HMC5883L_getIDC, .-HMC5883L_getIDC
 880              		.text
 881              	.Letext0:
 882              		.file 2 "c:\\program files (x86)\\cypress\\psoc creator\\3.1\\psoc creator\\import\\gnu_cs\\arm\\4
 883              		.file 3 "c:\\program files (x86)\\cypress\\psoc creator\\3.1\\psoc creator\\import\\gnu_cs\\arm\\4
 884              		.file 4 ".\\hmc5883l.h"