ARM GAS  C:\Users\Sam\AppData\Local\Temp\ccV6MXSK.s 			page 1


   1              		.cpu cortex-m0
   2              		.fpu softvfp
   3              		.eabi_attribute 20, 1
   4              		.eabi_attribute 21, 1
   5              		.eabi_attribute 23, 3
   6              		.eabi_attribute 24, 1
   7              		.eabi_attribute 25, 1
   8              		.eabi_attribute 26, 1
   9              		.eabi_attribute 30, 6
  10              		.eabi_attribute 34, 0
  11              		.eabi_attribute 18, 4
  12              		.code	16
  13              		.file	"interrupts.c"
  14              		.text
  15              	.Ltext0:
  16              		.cfi_sections	.debug_frame
  17              		.comm	messageTimerFlag,1,1
  18              		.comm	messageReceivedFlag,1,1
  19              		.comm	encoderInterruptFlag,1,1
  20              		.comm	speedInterruptFlag,1,1
  21              		.section	.text.messageReceived_isr,"ax",%progbits
  22              		.align	2
  23              		.global	messageReceived_isr
  24              		.code	16
  25              		.thumb_func
  26              		.type	messageReceived_isr, %function
  27              	messageReceived_isr:
  28              	.LFB33:
  29              		.file 1 ".\\interrupts.c"
   1:.\interrupts.c **** /* ========================================
   2:.\interrupts.c ****  *
   3:.\interrupts.c ****  * Copyright Sam Walsh, 2014
   4:.\interrupts.c ****  * All Rights Reserved.
   5:.\interrupts.c ****  *
   6:.\interrupts.c ****  * Interrupts.c Contains all the interrupts, put your own in here..
   7:.\interrupts.c ****  *
   8:.\interrupts.c ****  * ========================================
   9:.\interrupts.c **** */
  10:.\interrupts.c **** #include <project.h>
  11:.\interrupts.c **** #include <cydevice_trm.h>
  12:.\interrupts.c **** #include <CyLib.h>
  13:.\interrupts.c **** #include <interrupts.h>
  14:.\interrupts.c **** #include <ModbusUART.h>
  15:.\interrupts.c **** #include <MessageTimer.h>
  16:.\interrupts.c **** #include <Modbus.h>
  17:.\interrupts.c **** 
  18:.\interrupts.c **** volatile uint8 messageTimerFlag;
  19:.\interrupts.c **** volatile uint8 messageReceivedFlag;
  20:.\interrupts.c **** volatile uint8 encoderInterruptFlag;
  21:.\interrupts.c **** volatile uint8 speedInterruptFlag;
  22:.\interrupts.c **** 
  23:.\interrupts.c **** extern unsigned char response[125]; //Enough to return all holding-r's
  24:.\interrupts.c **** extern unsigned char received[125]; //Enough to write all holding-r's 
  25:.\interrupts.c **** 
  26:.\interrupts.c **** 
  27:.\interrupts.c **** CY_ISR(messageReceived_isr) 
  28:.\interrupts.c **** {
ARM GAS  C:\Users\Sam\AppData\Local\Temp\ccV6MXSK.s 			page 2


  30              		.loc 1 28 0
  31              		.cfi_startproc
  32 0000 80B5     		push	{r7, lr}
  33              		.cfi_def_cfa_offset 8
  34              		.cfi_offset 7, -8
  35              		.cfi_offset 14, -4
  36 0002 82B0     		sub	sp, sp, #8
  37              		.cfi_def_cfa_offset 16
  38 0004 00AF     		add	r7, sp, #0
  39              		.cfi_def_cfa_register 7
  29:.\interrupts.c ****     decodeMessage();  
  40              		.loc 1 29 0
  41 0006 FFF7FEFF 		bl	decodeMessage
  30:.\interrupts.c ****     //Clear the interrupt//
  31:.\interrupts.c ****     uint32 source;
  32:.\interrupts.c ****     messageReceivedFlag = 1;
  42              		.loc 1 32 0
  43 000a 064B     		ldr	r3, .L2
  44 000c 0122     		mov	r2, #1
  45 000e 1A70     		strb	r2, [r3]
  33:.\interrupts.c ****     source = ModbusUART_GetRxInterruptSourceMasked();
  46              		.loc 1 33 0
  47 0010 054B     		ldr	r3, .L2+4
  48 0012 1B68     		ldr	r3, [r3]
  49 0014 7B60     		str	r3, [r7, #4]
  34:.\interrupts.c ****     ModbusUART_ClearRxInterruptSource(source);
  50              		.loc 1 34 0
  51 0016 054B     		ldr	r3, .L2+8
  52 0018 7A68     		ldr	r2, [r7, #4]
  53 001a 1A60     		str	r2, [r3]
  35:.\interrupts.c **** }
  54              		.loc 1 35 0
  55 001c BD46     		mov	sp, r7
  56 001e 02B0     		add	sp, sp, #8
  57              		@ sp needed
  58 0020 80BD     		pop	{r7, pc}
  59              	.L3:
  60 0022 C046     		.align	2
  61              	.L2:
  62 0024 00000000 		.word	messageReceivedFlag
  63 0028 CC0F0740 		.word	1074204620
  64 002c C00F0740 		.word	1074204608
  65              		.cfi_endproc
  66              	.LFE33:
  67              		.size	messageReceived_isr, .-messageReceived_isr
  68              		.section	.text.endOfMessage_isr,"ax",%progbits
  69              		.align	2
  70              		.global	endOfMessage_isr
  71              		.code	16
  72              		.thumb_func
  73              		.type	endOfMessage_isr, %function
  74              	endOfMessage_isr:
  75              	.LFB34:
  36:.\interrupts.c **** 
  37:.\interrupts.c **** CY_ISR(endOfMessage_isr) 
  38:.\interrupts.c **** {
  76              		.loc 1 38 0
ARM GAS  C:\Users\Sam\AppData\Local\Temp\ccV6MXSK.s 			page 3


  77              		.cfi_startproc
  78 0000 80B5     		push	{r7, lr}
  79              		.cfi_def_cfa_offset 8
  80              		.cfi_offset 7, -8
  81              		.cfi_offset 14, -4
  82 0002 82B0     		sub	sp, sp, #8
  83              		.cfi_def_cfa_offset 16
  84 0004 00AF     		add	r7, sp, #0
  85              		.cfi_def_cfa_register 7
  39:.\interrupts.c ****     checkIfEndOfMessage();
  86              		.loc 1 39 0
  87 0006 FFF7FEFF 		bl	checkIfEndOfMessage
  40:.\interrupts.c ****     //Clear the interrupt//
  41:.\interrupts.c ****     uint32 source = 0;
  88              		.loc 1 41 0
  89 000a 0023     		mov	r3, #0
  90 000c 7B60     		str	r3, [r7, #4]
  42:.\interrupts.c ****     messageTimerFlag = 1;
  91              		.loc 1 42 0
  92 000e 074B     		ldr	r3, .L5
  93 0010 0122     		mov	r2, #1
  94 0012 1A70     		strb	r2, [r3]
  43:.\interrupts.c ****     source = MessageTimer_GetInterruptSource();
  95              		.loc 1 43 0
  96 0014 FFF7FEFF 		bl	MessageTimer_GetInterruptSource
  97 0018 031C     		mov	r3, r0
  98 001a 7B60     		str	r3, [r7, #4]
  44:.\interrupts.c ****     MessageTimer_ClearInterrupt(source);
  99              		.loc 1 44 0
 100 001c 7B68     		ldr	r3, [r7, #4]
 101 001e 181C     		mov	r0, r3
 102 0020 FFF7FEFF 		bl	MessageTimer_ClearInterrupt
  45:.\interrupts.c **** }
 103              		.loc 1 45 0
 104 0024 BD46     		mov	sp, r7
 105 0026 02B0     		add	sp, sp, #8
 106              		@ sp needed
 107 0028 80BD     		pop	{r7, pc}
 108              	.L6:
 109 002a C046     		.align	2
 110              	.L5:
 111 002c 00000000 		.word	messageTimerFlag
 112              		.cfi_endproc
 113              	.LFE34:
 114              		.size	endOfMessage_isr, .-endOfMessage_isr
 115              		.section	.text.speed_isr,"ax",%progbits
 116              		.align	2
 117              		.global	speed_isr
 118              		.code	16
 119              		.thumb_func
 120              		.type	speed_isr, %function
 121              	speed_isr:
 122              	.LFB35:
  46:.\interrupts.c **** 
  47:.\interrupts.c **** 
  48:.\interrupts.c **** CY_ISR(speed_isr) 
  49:.\interrupts.c **** {
ARM GAS  C:\Users\Sam\AppData\Local\Temp\ccV6MXSK.s 			page 4


 123              		.loc 1 49 0
 124              		.cfi_startproc
 125 0000 80B5     		push	{r7, lr}
 126              		.cfi_def_cfa_offset 8
 127              		.cfi_offset 7, -8
 128              		.cfi_offset 14, -4
 129 0002 00AF     		add	r7, sp, #0
 130              		.cfi_def_cfa_register 7
  50:.\interrupts.c ****    speedInterruptFlag = 1;
 131              		.loc 1 50 0
 132 0004 034B     		ldr	r3, .L8
 133 0006 0122     		mov	r2, #1
 134 0008 1A70     		strb	r2, [r3]
  51:.\interrupts.c ****    SpeedTimer_ReadStatusRegister(); //should get us out of the interrupt
 135              		.loc 1 51 0
 136 000a FFF7FEFF 		bl	SpeedTimer_ReadStatusRegister
  52:.\interrupts.c **** }
 137              		.loc 1 52 0
 138 000e BD46     		mov	sp, r7
 139              		@ sp needed
 140 0010 80BD     		pop	{r7, pc}
 141              	.L9:
 142 0012 C046     		.align	2
 143              	.L8:
 144 0014 00000000 		.word	speedInterruptFlag
 145              		.cfi_endproc
 146              	.LFE35:
 147              		.size	speed_isr, .-speed_isr
 148              		.text
 149              	.Letext0:
 150              		.file 2 ".\\Generated_Source\\PSoC4/cytypes.h"