ARM GAS  C:\Users\Sam\AppData\Local\Temp\ccKWGsAP.s 			page 1


   1              		.cpu cortex-m0
   2              		.fpu softvfp
   3              		.eabi_attribute 20, 1
   4              		.eabi_attribute 21, 1
   5              		.eabi_attribute 23, 3
   6              		.eabi_attribute 24, 1
   7              		.eabi_attribute 25, 1
   8              		.eabi_attribute 26, 1
   9              		.eabi_attribute 30, 6
  10              		.eabi_attribute 34, 0
  11              		.eabi_attribute 18, 4
  12              		.code	16
  13              		.file	"main.c"
  14              		.text
  15              	.Ltext0:
  16              		.cfi_sections	.debug_frame
  17              		.comm	devAddr,1,1
  18              		.comm	buffer,6,4
  19              		.comm	mode,1,1
  20              		.comm	mb,40,4
  21              		.global	interruptCount
  22              		.bss
  23              		.align	2
  24              		.type	interruptCount, %object
  25              		.size	interruptCount, 4
  26              	interruptCount:
  27 0000 00000000 		.space	4
  28              		.comm	pidspeed,1,1
  29              		.comm	cx,2,2
  30              		.comm	cy,2,2
  31              		.comm	cz,2,2
  32              		.comm	sx,8,8
  33              		.comm	sy,8,8
  34              		.comm	sz,8,8
  35              		.comm	offsetsx,8,8
  36              		.comm	offsetsy,8,8
  37              		.global	scale
  38              		.data
  39              		.align	2
  40              		.type	scale, %object
  41              		.size	scale, 4
  42              	scale:
  43 0000 1F856B3F 		.word	1064011039
  44              		.global	bearing
  45              		.bss
  46 0004 00000000 		.align	3
  47              		.type	bearing, %object
  48              		.size	bearing, 8
  49              	bearing:
  50 0008 00000000 		.space	8
  50      00000000 
  51              		.global	compassOnline
  52              		.type	compassOnline, %object
  53              		.size	compassOnline, 1
  54              	compassOnline:
  55 0010 00       		.space	1
  56              		.comm	xoffset,2,2
ARM GAS  C:\Users\Sam\AppData\Local\Temp\ccKWGsAP.s 			page 2


  57              		.comm	yoffset,2,2
  58              		.global	__aeabi_i2d
  59              		.global	__aeabi_f2d
  60              		.global	__aeabi_dmul
  61              		.global	__aeabi_d2uiz
  62              		.section	.text.main,"ax",%progbits
  63              		.align	2
  64              		.global	main
  65              		.code	16
  66              		.thumb_func
  67              		.type	main, %function
  68              	main:
  69              	.LFB33:
  70              		.file 1 ".\\main.c"
   1:.\main.c      **** /* ========================================
   2:.\main.c      ****  *
   3:.\main.c      ****  * Copyright Sam Walsh, 2015
   4:.\main.c      ****  * All Rights Reserved.
   5:.\main.c      ****  *
   6:.\main.c      ****  * main.c
   7:.\main.c      ****  *
   8:.\main.c      ****  * ========================================
   9:.\main.c      **** */
  10:.\main.c      **** #include <project.h>
  11:.\main.c      **** #include <interrupts.h>
  12:.\main.c      **** #include <modbus.h>
  13:.\main.c      **** #include <stdio.h>
  14:.\main.c      **** #include <stdbool.h>
  15:.\main.c      **** #include <stdlib.h>
  16:.\main.c      **** #include "math.h"
  17:.\main.c      **** #include "hmc5883l.h"
  18:.\main.c      **** 
  19:.\main.c      **** #define  forever    1
  20:.\main.c      **** #define  forwards   1
  21:.\main.c      **** #define  backwards  0
  22:.\main.c      **** 
  23:.\main.c      **** /* Function Prototypes */
  24:.\main.c      **** void updateEncoder(void);
  25:.\main.c      **** void updateModbusPackets(void);
  26:.\main.c      **** float calculateSpeed(void);
  27:.\main.c      **** int calculatePID(float, float);
  28:.\main.c      **** void scaleModbusPIDConstants(void);
  29:.\main.c      **** 
  30:.\main.c      **** /* Modbus Variables */
  31:.\main.c      **** extern unsigned int  holdingReg[50];
  32:.\main.c      **** extern unsigned char coils[50];
  33:.\main.c      **** extern unsigned char received[125];
  34:.\main.c      **** extern unsigned char response[125]; //Enough to return all holding-r's
  35:.\main.c      **** extern uint8 modbusMessage;
  36:.\main.c      **** 
  37:.\main.c      **** /* Typedef modbus packet */
  38:.\main.c      **** struct ModbusData {
  39:.\main.c      ****    int encoderCount;
  40:.\main.c      ****    int16 encoderHigh, encoderLow;
  41:.\main.c      ****    int16 speedRPSScaler;
  42:.\main.c      ****    int16 speedRPS;
  43:.\main.c      ****    int16 speedRPM;
ARM GAS  C:\Users\Sam\AppData\Local\Temp\ccKWGsAP.s 			page 3


  44:.\main.c      ****    uint16 motorCurrentScaler;
  45:.\main.c      ****    int16 motorCurrent;
  46:.\main.c      ****    float PIDScaler;
  47:.\main.c      ****    float Kp,Ki,Kd; 
  48:.\main.c      ****    int16 setpointSpeedRPM;
  49:.\main.c      **** };
  50:.\main.c      **** struct ModbusData mb;
  51:.\main.c      **** 
  52:.\main.c      **** /* Compass Variables */
  53:.\main.c      **** extern volatile uint8 speedInterruptFlag;
  54:.\main.c      **** int   interruptCount = 0;
  55:.\main.c      **** uint8 pidspeed;
  56:.\main.c      **** 
  57:.\main.c      **** int16 cx,cy,cz;
  58:.\main.c      **** double sx,sy,sz;
  59:.\main.c      **** double offsetsx,offsetsy;
  60:.\main.c      **** float scale = 0.92;
  61:.\main.c      **** double bearing = 0;
  62:.\main.c      **** bool compassOnline = 0;
  63:.\main.c      **** uint16 xoffset,yoffset;
  64:.\main.c      **** 
  65:.\main.c      **** 
  66:.\main.c      **** 
  67:.\main.c      **** /* Main loop */
  68:.\main.c      **** int main()
  69:.\main.c      **** {   
  71              		.loc 1 69 0
  72              		.cfi_startproc
  73 0000 F0B5     		push	{r4, r5, r6, r7, lr}
  74              		.cfi_def_cfa_offset 20
  75              		.cfi_offset 4, -20
  76              		.cfi_offset 5, -16
  77              		.cfi_offset 6, -12
  78              		.cfi_offset 7, -8
  79              		.cfi_offset 14, -4
  80 0002 83B0     		sub	sp, sp, #12
  81              		.cfi_def_cfa_offset 32
  82 0004 00AF     		add	r7, sp, #0
  83              		.cfi_def_cfa_register 7
  70:.\main.c      ****     /*Clear received array */
  71:.\main.c      ****     memset(&received[0], 0, sizeof(received));
  84              		.loc 1 71 0
  85 0006 664B     		ldr	r3, .L5+8
  86 0008 181C     		mov	r0, r3
  87 000a 0021     		mov	r1, #0
  88 000c 7D22     		mov	r2, #125
  89 000e FFF7FEFF 		bl	memset
  72:.\main.c      ****        
  73:.\main.c      ****     /* Start the SCB UART, Timer and its interrupt */
  74:.\main.c      ****     ModbusUART_Start();
  90              		.loc 1 74 0
  91 0012 FFF7FEFF 		bl	ModbusUART_Start
  75:.\main.c      ****     MessageReceived_StartEx(messageReceived_isr);  
  92              		.loc 1 75 0
  93 0016 634B     		ldr	r3, .L5+12
  94 0018 181C     		mov	r0, r3
  95 001a FFF7FEFF 		bl	MessageReceived_StartEx
ARM GAS  C:\Users\Sam\AppData\Local\Temp\ccKWGsAP.s 			page 4


  76:.\main.c      ****     writeEnable_Write(0); // receive mode
  96              		.loc 1 76 0
  97 001e 0020     		mov	r0, #0
  98 0020 FFF7FEFF 		bl	writeEnable_Write
  77:.\main.c      ****     
  78:.\main.c      ****     I2C_MASTER_Start(); //Start communicating to HMC5883L
  99              		.loc 1 78 0
 100 0024 FFF7FEFF 		bl	I2C_MASTER_Start
  79:.\main.c      ****     
  80:.\main.c      ****     /* Start the encoder interrupt */
  81:.\main.c      ****     SpeedInterrupt_StartEx(speed_isr);
 101              		.loc 1 81 0
 102 0028 5F4B     		ldr	r3, .L5+16
 103 002a 181C     		mov	r0, r3
 104 002c FFF7FEFF 		bl	SpeedInterrupt_StartEx
  82:.\main.c      ****     SpeedTimer_Start();
 105              		.loc 1 82 0
 106 0030 FFF7FEFF 		bl	SpeedTimer_Start
  83:.\main.c      **** 
  84:.\main.c      ****     int i = 0;
 107              		.loc 1 84 0
 108 0034 0023     		mov	r3, #0
 109 0036 7B60     		str	r3, [r7, #4]
  85:.\main.c      ****     
  86:.\main.c      ****     CyGlobalIntEnable; /* comment this line to disable global interrupts. */
 110              		.loc 1 86 0
 111              	@ 86 ".\main.c" 1
 112 0038 62B6     		CPSIE   i
 113              	@ 0 "" 2
  87:.\main.c      ****     
  88:.\main.c      ****     /* Setup Scaling factors for Modbus */ 
  89:.\main.c      ****     mb.speedRPSScaler = 1000;
 114              		.loc 1 89 0
 115              		.code	16
 116 003a 5C4B     		ldr	r3, .L5+20
 117 003c FA22     		mov	r2, #250
 118 003e 9200     		lsl	r2, r2, #2
 119 0040 1A81     		strh	r2, [r3, #8]
  90:.\main.c      ****     mb.motorCurrentScaler = 100;
 120              		.loc 1 90 0
 121 0042 5A4B     		ldr	r3, .L5+20
 122 0044 6422     		mov	r2, #100
 123 0046 DA81     		strh	r2, [r3, #14]
  91:.\main.c      ****     //mb.PIDScaler = 1000;
  92:.\main.c      ****     scaleModbusPIDConstants();
 124              		.loc 1 92 0
 125 0048 FFF7FEFF 		bl	scaleModbusPIDConstants
  93:.\main.c      ****     
  94:.\main.c      ****     uint8 ida = 0;
 126              		.loc 1 94 0
 127 004c FB1C     		add	r3, r7, #3
 128 004e 0022     		mov	r2, #0
 129 0050 1A70     		strb	r2, [r3]
  95:.\main.c      ****     HMC5883L_Init();
 130              		.loc 1 95 0
 131 0052 FFF7FEFF 		bl	HMC5883L_Init
  96:.\main.c      ****     compassOnline = HMC5883L_testConnection();
ARM GAS  C:\Users\Sam\AppData\Local\Temp\ccKWGsAP.s 			page 5


 132              		.loc 1 96 0
 133 0056 FFF7FEFF 		bl	HMC5883L_testConnection
 134 005a 031C     		mov	r3, r0
 135 005c 1A1C     		mov	r2, r3
 136 005e 544B     		ldr	r3, .L5+24
 137 0060 1A70     		strb	r2, [r3]
  97:.\main.c      ****     if(compassOnline){
 138              		.loc 1 97 0
 139 0062 534B     		ldr	r3, .L5+24
 140 0064 1B78     		ldrb	r3, [r3]
 141 0066 002B     		cmp	r3, #0
 142 0068 01D0     		beq	.L2
  98:.\main.c      ****         HMC5883L_initialize();
 143              		.loc 1 98 0
 144 006a FFF7FEFF 		bl	HMC5883L_initialize
 145              	.L2:
  99:.\main.c      ****     }
 100:.\main.c      **** 
 101:.\main.c      ****     
 102:.\main.c      ****     
 103:.\main.c      ****     //HMC5883L_SetUp();
 104:.\main.c      ****     //HMC58X3L_Calibration();
 105:.\main.c      ****     
 106:.\main.c      ****     
 107:.\main.c      ****     while(forever)
 108:.\main.c      ****     {       
 109:.\main.c      ****         if(modbusMessage)
 146              		.loc 1 109 0
 147 006e 514B     		ldr	r3, .L5+28
 148 0070 1B78     		ldrb	r3, [r3]
 149 0072 002B     		cmp	r3, #0
 150 0074 01D0     		beq	.L3
 110:.\main.c      ****         {
 111:.\main.c      ****           processMessage();
 151              		.loc 1 111 0
 152 0076 FFF7FEFF 		bl	processMessage
 153              	.L3:
 112:.\main.c      ****         }
 113:.\main.c      **** 
 114:.\main.c      ****         if(compassOnline)
 154              		.loc 1 114 0
 155 007a 4D4B     		ldr	r3, .L5+24
 156 007c 1B78     		ldrb	r3, [r3]
 157 007e 002B     		cmp	r3, #0
 158 0080 00D1     		bne	.LCB68
 159 0082 88E0     		b	.L4	@long jump
 160              	.LCB68:
 115:.\main.c      ****         {            
 116:.\main.c      ****             HMC5883L_getHeading(&cx,&cy,&cz);
 161              		.loc 1 116 0
 162 0084 4C49     		ldr	r1, .L5+32
 163 0086 4D4A     		ldr	r2, .L5+36
 164 0088 4D4B     		ldr	r3, .L5+40
 165 008a 081C     		mov	r0, r1
 166 008c 111C     		mov	r1, r2
 167 008e 1A1C     		mov	r2, r3
 168 0090 FFF7FEFF 		bl	HMC5883L_getHeading
ARM GAS  C:\Users\Sam\AppData\Local\Temp\ccKWGsAP.s 			page 6


 117:.\main.c      ****             sx = (double)(cx);
 169              		.loc 1 117 0
 170 0094 484B     		ldr	r3, .L5+32
 171 0096 1B88     		ldrh	r3, [r3]
 172 0098 1BB2     		sxth	r3, r3
 173 009a 181C     		mov	r0, r3
 174 009c FFF7FEFF 		bl	__aeabi_i2d
 175 00a0 031C     		mov	r3, r0
 176 00a2 0C1C     		mov	r4, r1
 177 00a4 474A     		ldr	r2, .L5+44
 178 00a6 1360     		str	r3, [r2]
 179 00a8 5460     		str	r4, [r2, #4]
 118:.\main.c      ****             sy = (double)cy;
 180              		.loc 1 118 0
 181 00aa 444B     		ldr	r3, .L5+36
 182 00ac 1B88     		ldrh	r3, [r3]
 183 00ae 1BB2     		sxth	r3, r3
 184 00b0 181C     		mov	r0, r3
 185 00b2 FFF7FEFF 		bl	__aeabi_i2d
 186 00b6 031C     		mov	r3, r0
 187 00b8 0C1C     		mov	r4, r1
 188 00ba 434A     		ldr	r2, .L5+48
 189 00bc 1360     		str	r3, [r2]
 190 00be 5460     		str	r4, [r2, #4]
 119:.\main.c      ****             sz = (double)cz * scale;        
 191              		.loc 1 119 0
 192 00c0 3F4B     		ldr	r3, .L5+40
 193 00c2 1B88     		ldrh	r3, [r3]
 194 00c4 1BB2     		sxth	r3, r3
 195 00c6 181C     		mov	r0, r3
 196 00c8 FFF7FEFF 		bl	__aeabi_i2d
 197 00cc 051C     		mov	r5, r0
 198 00ce 0E1C     		mov	r6, r1
 199 00d0 3E4B     		ldr	r3, .L5+52
 200 00d2 1B68     		ldr	r3, [r3]
 201 00d4 181C     		add	r0, r3, #0
 202 00d6 FFF7FEFF 		bl	__aeabi_f2d
 203 00da 031C     		mov	r3, r0
 204 00dc 0C1C     		mov	r4, r1
 205 00de 281C     		mov	r0, r5
 206 00e0 311C     		mov	r1, r6
 207 00e2 1A1C     		mov	r2, r3
 208 00e4 231C     		mov	r3, r4
 209 00e6 FFF7FEFF 		bl	__aeabi_dmul
 210 00ea 031C     		mov	r3, r0
 211 00ec 0C1C     		mov	r4, r1
 212 00ee 384A     		ldr	r2, .L5+56
 213 00f0 1360     		str	r3, [r2]
 214 00f2 5460     		str	r4, [r2, #4]
 120:.\main.c      ****             
 121:.\main.c      **** //            if(holdingReg[4] == 0){
 122:.\main.c      **** //                //no x offset applied, use default
 123:.\main.c      **** //                xoffset = -75;
 124:.\main.c      **** //            }
 125:.\main.c      **** //            else{xoffset = holdingReg[4];}
 126:.\main.c      **** //            
 127:.\main.c      **** //            if(holdingReg[5] == 0){
ARM GAS  C:\Users\Sam\AppData\Local\Temp\ccKWGsAP.s 			page 7


 128:.\main.c      **** //                //no y offset applied use default
 129:.\main.c      **** //                yoffset = -7;
 130:.\main.c      **** //            }
 131:.\main.c      **** //            else{xoffset = holdingReg[5];}
 132:.\main.c      ****             
 133:.\main.c      ****            // xoffset = -75;
 134:.\main.c      ****            // yoffset = -7;
 135:.\main.c      ****             
 136:.\main.c      **** //            if((holdingReg[4] !=0) && (holdingReg[5] !=0))
 137:.\main.c      **** //            {
 138:.\main.c      **** //                //master has set offsets so it wants us to calculate the bearing here
 139:.\main.c      **** //                offsetsx = ((double)((int16)holdingReg[4])) /100.0;
 140:.\main.c      **** //                offsetsy = ((double)((int16)holdingReg[5])) /100.0;  
 141:.\main.c      **** //                
 142:.\main.c      **** //                bearing  = atan2((sy - offsetsy), (sx - offsetsx)); 
 143:.\main.c      **** //                if (bearing < 0)
 144:.\main.c      **** //                    bearing += 2 * M_PI;
 145:.\main.c      **** //                 bearing = bearing*(180.0 / M_PI);//convert to degrees          
 146:.\main.c      **** //            }
 147:.\main.c      **** 
 148:.\main.c      ****             holdingReg[0] = (uint16)(sx*100.0);
 215              		.loc 1 148 0
 216 00f4 334B     		ldr	r3, .L5+44
 217 00f6 5C68     		ldr	r4, [r3, #4]
 218 00f8 1B68     		ldr	r3, [r3]
 219 00fa 181C     		mov	r0, r3
 220 00fc 211C     		mov	r1, r4
 221 00fe 274B     		ldr	r3, .L5+4
 222 0100 254A     		ldr	r2, .L5
 223 0102 FFF7FEFF 		bl	__aeabi_dmul
 224 0106 031C     		mov	r3, r0
 225 0108 0C1C     		mov	r4, r1
 226 010a 181C     		mov	r0, r3
 227 010c 211C     		mov	r1, r4
 228 010e FFF7FEFF 		bl	__aeabi_d2uiz
 229 0112 031C     		mov	r3, r0
 230 0114 9BB2     		uxth	r3, r3
 231 0116 1A1C     		mov	r2, r3
 232 0118 2E4B     		ldr	r3, .L5+60
 233 011a 1A60     		str	r2, [r3]
 149:.\main.c      ****             holdingReg[1] = (uint16)(sy*100.0);            
 234              		.loc 1 149 0
 235 011c 2A4B     		ldr	r3, .L5+48
 236 011e 5C68     		ldr	r4, [r3, #4]
 237 0120 1B68     		ldr	r3, [r3]
 238 0122 181C     		mov	r0, r3
 239 0124 211C     		mov	r1, r4
 240 0126 1D4B     		ldr	r3, .L5+4
 241 0128 1B4A     		ldr	r2, .L5
 242 012a FFF7FEFF 		bl	__aeabi_dmul
 243 012e 031C     		mov	r3, r0
 244 0130 0C1C     		mov	r4, r1
 245 0132 181C     		mov	r0, r3
 246 0134 211C     		mov	r1, r4
 247 0136 FFF7FEFF 		bl	__aeabi_d2uiz
 248 013a 031C     		mov	r3, r0
 249 013c 9BB2     		uxth	r3, r3
ARM GAS  C:\Users\Sam\AppData\Local\Temp\ccKWGsAP.s 			page 8


 250 013e 1A1C     		mov	r2, r3
 251 0140 244B     		ldr	r3, .L5+60
 252 0142 5A60     		str	r2, [r3, #4]
 150:.\main.c      ****             holdingReg[2] = (uint16)(sz*100.0);
 253              		.loc 1 150 0
 254 0144 224B     		ldr	r3, .L5+56
 255 0146 5C68     		ldr	r4, [r3, #4]
 256 0148 1B68     		ldr	r3, [r3]
 257 014a 181C     		mov	r0, r3
 258 014c 211C     		mov	r1, r4
 259 014e 134B     		ldr	r3, .L5+4
 260 0150 114A     		ldr	r2, .L5
 261 0152 FFF7FEFF 		bl	__aeabi_dmul
 262 0156 031C     		mov	r3, r0
 263 0158 0C1C     		mov	r4, r1
 264 015a 181C     		mov	r0, r3
 265 015c 211C     		mov	r1, r4
 266 015e FFF7FEFF 		bl	__aeabi_d2uiz
 267 0162 031C     		mov	r3, r0
 268 0164 9BB2     		uxth	r3, r3
 269 0166 1A1C     		mov	r2, r3
 270 0168 1A4B     		ldr	r3, .L5+60
 271 016a 9A60     		str	r2, [r3, #8]
 151:.\main.c      ****             holdingReg[3] = (uint16) (bearing*100.0);
 272              		.loc 1 151 0
 273 016c 1A4B     		ldr	r3, .L5+64
 274 016e 5C68     		ldr	r4, [r3, #4]
 275 0170 1B68     		ldr	r3, [r3]
 276 0172 181C     		mov	r0, r3
 277 0174 211C     		mov	r1, r4
 278 0176 094B     		ldr	r3, .L5+4
 279 0178 074A     		ldr	r2, .L5
 280 017a FFF7FEFF 		bl	__aeabi_dmul
 281 017e 031C     		mov	r3, r0
 282 0180 0C1C     		mov	r4, r1
 283 0182 181C     		mov	r0, r3
 284 0184 211C     		mov	r1, r4
 285 0186 FFF7FEFF 		bl	__aeabi_d2uiz
 286 018a 031C     		mov	r3, r0
 287 018c 9BB2     		uxth	r3, r3
 288 018e 1A1C     		mov	r2, r3
 289 0190 104B     		ldr	r3, .L5+60
 290 0192 DA60     		str	r2, [r3, #12]
 152:.\main.c      ****     
 153:.\main.c      ****         }
 154:.\main.c      ****     }
 291              		.loc 1 154 0
 292 0194 6BE7     		b	.L2
 293              	.L4:
 294 0196 6AE7     		b	.L2
 295              	.L6:
 296              		.align	3
 297              	.L5:
 298 0198 00000000 		.word	0
 299 019c 00005940 		.word	1079574528
 300 01a0 00000000 		.word	received
 301 01a4 00000000 		.word	messageReceived_isr
ARM GAS  C:\Users\Sam\AppData\Local\Temp\ccKWGsAP.s 			page 9


 302 01a8 00000000 		.word	speed_isr
 303 01ac 00000000 		.word	mb
 304 01b0 00000000 		.word	compassOnline
 305 01b4 00000000 		.word	modbusMessage
 306 01b8 00000000 		.word	cx
 307 01bc 00000000 		.word	cy
 308 01c0 00000000 		.word	cz
 309 01c4 00000000 		.word	sx
 310 01c8 00000000 		.word	sy
 311 01cc 00000000 		.word	scale
 312 01d0 00000000 		.word	sz
 313 01d4 00000000 		.word	holdingReg
 314 01d8 00000000 		.word	bearing
 315              		.cfi_endproc
 316              	.LFE33:
 317              		.size	main, .-main
 318              		.global	__aeabi_ui2f
 319              		.global	__aeabi_fdiv
 320 01dc C046C046 		.section	.text.scaleModbusPIDConstants,"ax",%progbits
 321              		.align	2
 322              		.global	scaleModbusPIDConstants
 323              		.code	16
 324              		.thumb_func
 325              		.type	scaleModbusPIDConstants, %function
 326              	scaleModbusPIDConstants:
 327              	.LFB34:
 155:.\main.c      **** }
 156:.\main.c      **** 
 157:.\main.c      **** void scaleModbusPIDConstants(void)
 158:.\main.c      **** {
 328              		.loc 1 158 0
 329              		.cfi_startproc
 330 0000 80B5     		push	{r7, lr}
 331              		.cfi_def_cfa_offset 8
 332              		.cfi_offset 7, -8
 333              		.cfi_offset 14, -4
 334 0002 00AF     		add	r7, sp, #0
 335              		.cfi_def_cfa_register 7
 159:.\main.c      ****     //Need to actually read the holding registers and do the divide but for now lets
 160:.\main.c      ****     //leave this as just setting the values.
 161:.\main.c      ****     if(holdingReg[8] == 0)
 336              		.loc 1 161 0
 337 0004 254B     		ldr	r3, .L10
 338 0006 1B6A     		ldr	r3, [r3, #32]
 339 0008 002B     		cmp	r3, #0
 340 000a 0CD1     		bne	.L8
 162:.\main.c      ****     {
 163:.\main.c      ****         //scaler hasnt been set go with defaults
 164:.\main.c      ****         mb.PIDScaler = 1000;
 341              		.loc 1 164 0
 342 000c 244B     		ldr	r3, .L10+4
 343 000e 254A     		ldr	r2, .L10+8
 344 0010 5A61     		str	r2, [r3, #20]
 165:.\main.c      ****         mb.Kp = 0.9;
 345              		.loc 1 165 0
 346 0012 234B     		ldr	r3, .L10+4
 347 0014 244A     		ldr	r2, .L10+12
ARM GAS  C:\Users\Sam\AppData\Local\Temp\ccKWGsAP.s 			page 10


 348 0016 9A61     		str	r2, [r3, #24]
 166:.\main.c      ****         mb.Ki = 0.2;
 349              		.loc 1 166 0
 350 0018 214B     		ldr	r3, .L10+4
 351 001a 244A     		ldr	r2, .L10+16
 352 001c DA61     		str	r2, [r3, #28]
 167:.\main.c      ****         mb.Kd = 0;
 353              		.loc 1 167 0
 354 001e 204B     		ldr	r3, .L10+4
 355 0020 0022     		mov	r2, #0
 356 0022 1A62     		str	r2, [r3, #32]
 357 0024 37E0     		b	.L7
 358              	.L8:
 168:.\main.c      ****     }
 169:.\main.c      ****     else
 170:.\main.c      ****     {
 171:.\main.c      ****         //scaler hasnt been set go with defaults
 172:.\main.c      ****         mb.PIDScaler = holdingReg[8];
 359              		.loc 1 172 0
 360 0026 1D4B     		ldr	r3, .L10
 361 0028 1B6A     		ldr	r3, [r3, #32]
 362 002a 181C     		mov	r0, r3
 363 002c FFF7FEFF 		bl	__aeabi_ui2f
 364 0030 021C     		add	r2, r0, #0
 365 0032 1B4B     		ldr	r3, .L10+4
 366 0034 5A61     		str	r2, [r3, #20]
 173:.\main.c      ****         mb.Kp = holdingReg[9]/mb.PIDScaler;
 367              		.loc 1 173 0
 368 0036 194B     		ldr	r3, .L10
 369 0038 5B6A     		ldr	r3, [r3, #36]
 370 003a 181C     		mov	r0, r3
 371 003c FFF7FEFF 		bl	__aeabi_ui2f
 372 0040 021C     		add	r2, r0, #0
 373 0042 174B     		ldr	r3, .L10+4
 374 0044 5B69     		ldr	r3, [r3, #20]
 375 0046 101C     		add	r0, r2, #0
 376 0048 191C     		add	r1, r3, #0
 377 004a FFF7FEFF 		bl	__aeabi_fdiv
 378 004e 031C     		add	r3, r0, #0
 379 0050 1A1C     		add	r2, r3, #0
 380 0052 134B     		ldr	r3, .L10+4
 381 0054 9A61     		str	r2, [r3, #24]
 174:.\main.c      ****         mb.Ki = holdingReg[10]/mb.PIDScaler;
 382              		.loc 1 174 0
 383 0056 114B     		ldr	r3, .L10
 384 0058 9B6A     		ldr	r3, [r3, #40]
 385 005a 181C     		mov	r0, r3
 386 005c FFF7FEFF 		bl	__aeabi_ui2f
 387 0060 021C     		add	r2, r0, #0
 388 0062 0F4B     		ldr	r3, .L10+4
 389 0064 5B69     		ldr	r3, [r3, #20]
 390 0066 101C     		add	r0, r2, #0
 391 0068 191C     		add	r1, r3, #0
 392 006a FFF7FEFF 		bl	__aeabi_fdiv
 393 006e 031C     		add	r3, r0, #0
 394 0070 1A1C     		add	r2, r3, #0
 395 0072 0B4B     		ldr	r3, .L10+4
ARM GAS  C:\Users\Sam\AppData\Local\Temp\ccKWGsAP.s 			page 11


 396 0074 DA61     		str	r2, [r3, #28]
 175:.\main.c      ****         mb.Kd = holdingReg[11]/mb.PIDScaler;
 397              		.loc 1 175 0
 398 0076 094B     		ldr	r3, .L10
 399 0078 DB6A     		ldr	r3, [r3, #44]
 400 007a 181C     		mov	r0, r3
 401 007c FFF7FEFF 		bl	__aeabi_ui2f
 402 0080 021C     		add	r2, r0, #0
 403 0082 074B     		ldr	r3, .L10+4
 404 0084 5B69     		ldr	r3, [r3, #20]
 405 0086 101C     		add	r0, r2, #0
 406 0088 191C     		add	r1, r3, #0
 407 008a FFF7FEFF 		bl	__aeabi_fdiv
 408 008e 031C     		add	r3, r0, #0
 409 0090 1A1C     		add	r2, r3, #0
 410 0092 034B     		ldr	r3, .L10+4
 411 0094 1A62     		str	r2, [r3, #32]
 412              	.L7:
 176:.\main.c      ****     }
 177:.\main.c      **** 
 178:.\main.c      **** }
 413              		.loc 1 178 0
 414 0096 BD46     		mov	sp, r7
 415              		@ sp needed
 416 0098 80BD     		pop	{r7, pc}
 417              	.L11:
 418 009a C046     		.align	2
 419              	.L10:
 420 009c 00000000 		.word	holdingReg
 421 00a0 00000000 		.word	mb
 422 00a4 00007A44 		.word	1148846080
 423 00a8 6666663F 		.word	1063675494
 424 00ac CDCC4C3E 		.word	1045220557
 425              		.cfi_endproc
 426              	.LFE34:
 427              		.size	scaleModbusPIDConstants, .-scaleModbusPIDConstants
 428              		.global	__aeabi_fsub
 429              		.global	__aeabi_fadd
 430              		.global	__aeabi_d2f
 431              		.global	__aeabi_fmul
 432              		.global	__aeabi_f2iz
 433              		.section	.text.calculatePID,"ax",%progbits
 434              		.align	2
 435              		.global	calculatePID
 436              		.code	16
 437              		.thumb_func
 438              		.type	calculatePID, %function
 439              	calculatePID:
 440              	.LFB35:
 179:.\main.c      **** 
 180:.\main.c      **** 
 181:.\main.c      **** int calculatePID(float currentValue, float setpoint)
 182:.\main.c      **** {
 441              		.loc 1 182 0
 442              		.cfi_startproc
 443 0000 90B5     		push	{r4, r7, lr}
 444              		.cfi_def_cfa_offset 12
ARM GAS  C:\Users\Sam\AppData\Local\Temp\ccKWGsAP.s 			page 12


 445              		.cfi_offset 4, -12
 446              		.cfi_offset 7, -8
 447              		.cfi_offset 14, -4
 448 0002 87B0     		sub	sp, sp, #28
 449              		.cfi_def_cfa_offset 40
 450 0004 00AF     		add	r7, sp, #0
 451              		.cfi_def_cfa_register 7
 452 0006 7860     		str	r0, [r7, #4]
 453 0008 3960     		str	r1, [r7]
 183:.\main.c      ****     static float integral   = 0;
 184:.\main.c      ****     static float derivative = 0;
 185:.\main.c      ****     static float lastError = 0;
 186:.\main.c      **** 
 187:.\main.c      ****     float error, fcontrol = 0.0;
 454              		.loc 1 187 0
 455 000a 0023     		mov	r3, #0
 456 000c 3B61     		str	r3, [r7, #16]
 188:.\main.c      ****     int   control = 0;
 457              		.loc 1 188 0
 458 000e 0023     		mov	r3, #0
 459 0010 7B61     		str	r3, [r7, #20]
 189:.\main.c      ****     
 190:.\main.c      ****     error = setpoint - currentValue;
 460              		.loc 1 190 0
 461 0012 3868     		ldr	r0, [r7]
 462 0014 7968     		ldr	r1, [r7, #4]
 463 0016 FFF7FEFF 		bl	__aeabi_fsub
 464 001a 031C     		add	r3, r0, #0
 465 001c FB60     		str	r3, [r7, #12]
 191:.\main.c      ****     integral = (integral + error);
 466              		.loc 1 191 0
 467 001e 344B     		ldr	r3, .L16+8
 468 0020 1B68     		ldr	r3, [r3]
 469 0022 181C     		add	r0, r3, #0
 470 0024 F968     		ldr	r1, [r7, #12]
 471 0026 FFF7FEFF 		bl	__aeabi_fadd
 472 002a 031C     		add	r3, r0, #0
 473 002c 1A1C     		add	r2, r3, #0
 474 002e 304B     		ldr	r3, .L16+8
 475 0030 1A60     		str	r2, [r3]
 192:.\main.c      ****     integral = 0.6 * integral; //damping integral 
 476              		.loc 1 192 0
 477 0032 2F4B     		ldr	r3, .L16+8
 478 0034 1B68     		ldr	r3, [r3]
 479 0036 181C     		add	r0, r3, #0
 480 0038 FFF7FEFF 		bl	__aeabi_f2d
 481 003c 031C     		mov	r3, r0
 482 003e 0C1C     		mov	r4, r1
 483 0040 181C     		mov	r0, r3
 484 0042 211C     		mov	r1, r4
 485 0044 294B     		ldr	r3, .L16+4
 486 0046 284A     		ldr	r2, .L16
 487 0048 FFF7FEFF 		bl	__aeabi_dmul
 488 004c 031C     		mov	r3, r0
 489 004e 0C1C     		mov	r4, r1
 490 0050 181C     		mov	r0, r3
 491 0052 211C     		mov	r1, r4
ARM GAS  C:\Users\Sam\AppData\Local\Temp\ccKWGsAP.s 			page 13


 492 0054 FFF7FEFF 		bl	__aeabi_d2f
 493 0058 021C     		add	r2, r0, #0
 494 005a 254B     		ldr	r3, .L16+8
 495 005c 1A60     		str	r2, [r3]
 193:.\main.c      **** 	derivative = (error - lastError);
 496              		.loc 1 193 0
 497 005e 254B     		ldr	r3, .L16+12
 498 0060 1B68     		ldr	r3, [r3]
 499 0062 F868     		ldr	r0, [r7, #12]
 500 0064 191C     		add	r1, r3, #0
 501 0066 FFF7FEFF 		bl	__aeabi_fsub
 502 006a 031C     		add	r3, r0, #0
 503 006c 1A1C     		add	r2, r3, #0
 504 006e 224B     		ldr	r3, .L16+16
 505 0070 1A60     		str	r2, [r3]
 194:.\main.c      **** 	fcontrol =  (mb.Kp * error); 
 506              		.loc 1 194 0
 507 0072 224B     		ldr	r3, .L16+20
 508 0074 9B69     		ldr	r3, [r3, #24]
 509 0076 181C     		add	r0, r3, #0
 510 0078 F968     		ldr	r1, [r7, #12]
 511 007a FFF7FEFF 		bl	__aeabi_fmul
 512 007e 031C     		add	r3, r0, #0
 513 0080 3B61     		str	r3, [r7, #16]
 195:.\main.c      **** 	fcontrol += (mb.Kd * derivative);
 514              		.loc 1 195 0
 515 0082 1E4B     		ldr	r3, .L16+20
 516 0084 1A6A     		ldr	r2, [r3, #32]
 517 0086 1C4B     		ldr	r3, .L16+16
 518 0088 1B68     		ldr	r3, [r3]
 519 008a 101C     		add	r0, r2, #0
 520 008c 191C     		add	r1, r3, #0
 521 008e FFF7FEFF 		bl	__aeabi_fmul
 522 0092 031C     		add	r3, r0, #0
 523 0094 3869     		ldr	r0, [r7, #16]
 524 0096 191C     		add	r1, r3, #0
 525 0098 FFF7FEFF 		bl	__aeabi_fadd
 526 009c 031C     		add	r3, r0, #0
 527 009e 3B61     		str	r3, [r7, #16]
 196:.\main.c      **** 	fcontrol += (mb.Ki * integral);
 528              		.loc 1 196 0
 529 00a0 164B     		ldr	r3, .L16+20
 530 00a2 DA69     		ldr	r2, [r3, #28]
 531 00a4 124B     		ldr	r3, .L16+8
 532 00a6 1B68     		ldr	r3, [r3]
 533 00a8 101C     		add	r0, r2, #0
 534 00aa 191C     		add	r1, r3, #0
 535 00ac FFF7FEFF 		bl	__aeabi_fmul
 536 00b0 031C     		add	r3, r0, #0
 537 00b2 3869     		ldr	r0, [r7, #16]
 538 00b4 191C     		add	r1, r3, #0
 539 00b6 FFF7FEFF 		bl	__aeabi_fadd
 540 00ba 031C     		add	r3, r0, #0
 541 00bc 3B61     		str	r3, [r7, #16]
 197:.\main.c      ****     control = (int)fcontrol;
 542              		.loc 1 197 0
 543 00be 3869     		ldr	r0, [r7, #16]
ARM GAS  C:\Users\Sam\AppData\Local\Temp\ccKWGsAP.s 			page 14


 544 00c0 FFF7FEFF 		bl	__aeabi_f2iz
 545 00c4 031C     		mov	r3, r0
 546 00c6 7B61     		str	r3, [r7, #20]
 198:.\main.c      ****     if(control > 255)
 547              		.loc 1 198 0
 548 00c8 7B69     		ldr	r3, [r7, #20]
 549 00ca FF2B     		cmp	r3, #255
 550 00cc 02DD     		ble	.L13
 199:.\main.c      ****     {
 200:.\main.c      ****         control = 255;
 551              		.loc 1 200 0
 552 00ce FF23     		mov	r3, #255
 553 00d0 7B61     		str	r3, [r7, #20]
 554 00d2 04E0     		b	.L14
 555              	.L13:
 201:.\main.c      ****     }
 202:.\main.c      ****     else if (control < 0)
 556              		.loc 1 202 0
 557 00d4 7B69     		ldr	r3, [r7, #20]
 558 00d6 002B     		cmp	r3, #0
 559 00d8 01DA     		bge	.L14
 203:.\main.c      ****     {
 204:.\main.c      ****         control = 0;
 560              		.loc 1 204 0
 561 00da 0023     		mov	r3, #0
 562 00dc 7B61     		str	r3, [r7, #20]
 563              	.L14:
 205:.\main.c      ****     }
 206:.\main.c      ****     return control;   
 564              		.loc 1 206 0
 565 00de 7B69     		ldr	r3, [r7, #20]
 207:.\main.c      **** }
 566              		.loc 1 207 0
 567 00e0 181C     		mov	r0, r3
 568 00e2 BD46     		mov	sp, r7
 569 00e4 07B0     		add	sp, sp, #28
 570              		@ sp needed
 571 00e6 90BD     		pop	{r4, r7, pc}
 572              	.L17:
 573              		.align	3
 574              	.L16:
 575 00e8 33333333 		.word	858993459
 576 00ec 3333E33F 		.word	1071854387
 577 00f0 14000000 		.word	integral.7223
 578 00f4 18000000 		.word	lastError.7225
 579 00f8 1C000000 		.word	derivative.7224
 580 00fc 00000000 		.word	mb
 581              		.cfi_endproc
 582              	.LFE35:
 583              		.size	calculatePID, .-calculatePID
 584              		.section	.text.updateModbusPackets,"ax",%progbits
 585              		.align	2
 586              		.global	updateModbusPackets
 587              		.code	16
 588              		.thumb_func
 589              		.type	updateModbusPackets, %function
 590              	updateModbusPackets:
ARM GAS  C:\Users\Sam\AppData\Local\Temp\ccKWGsAP.s 			page 15


 591              	.LFB36:
 208:.\main.c      **** 
 209:.\main.c      **** 
 210:.\main.c      **** void updateModbusPackets(void)
 211:.\main.c      **** {
 592              		.loc 1 211 0
 593              		.cfi_startproc
 594 0000 80B5     		push	{r7, lr}
 595              		.cfi_def_cfa_offset 8
 596              		.cfi_offset 7, -8
 597              		.cfi_offset 14, -4
 598 0002 00AF     		add	r7, sp, #0
 599              		.cfi_def_cfa_register 7
 212:.\main.c      ****    // holdingReg[0] = mb.encoderLow;
 213:.\main.c      ****   //  holdingReg[1] = mb.encoderHigh;
 214:.\main.c      ****    // holdingReg[2] = mb.speedRPSScaler;
 215:.\main.c      ****    // holdingReg[3] = mb.speedRPS;
 216:.\main.c      ****    // holdingReg[4] = mb.speedRPM;
 217:.\main.c      ****     //holdingReg[5] = duty cycle
 218:.\main.c      ****     //holdingReg[6] = direction
 219:.\main.c      ****    // holdingReg[7] = mb.motorCurrent;
 220:.\main.c      ****     //holdingReg[8]  = PIDScaler
 221:.\main.c      ****     //holdingReg[9]  = Kp
 222:.\main.c      ****     //holdingReg[10] = Ki
 223:.\main.c      ****     //holdingReg[11] = Kd
 224:.\main.c      ****     //holdingReg[12] = setpointRPM
 225:.\main.c      ****     holdingReg[13] = pidspeed;
 600              		.loc 1 225 0
 601 0004 034B     		ldr	r3, .L19
 602 0006 1B78     		ldrb	r3, [r3]
 603 0008 1A1C     		mov	r2, r3
 604 000a 034B     		ldr	r3, .L19+4
 605 000c 5A63     		str	r2, [r3, #52]
 226:.\main.c      ****     //holdingReg[14] = disable
 227:.\main.c      **** 
 228:.\main.c      **** }
 606              		.loc 1 228 0
 607 000e BD46     		mov	sp, r7
 608              		@ sp needed
 609 0010 80BD     		pop	{r7, pc}
 610              	.L20:
 611 0012 C046     		.align	2
 612              	.L19:
 613 0014 00000000 		.word	pidspeed
 614 0018 00000000 		.word	holdingReg
 615              		.cfi_endproc
 616              	.LFE36:
 617              		.size	updateModbusPackets, .-updateModbusPackets
 618              		.bss
 619 0011 000000   		.align	2
 620              	integral.7223:
 621 0014 00000000 		.space	4
 622              		.align	2
 623              	lastError.7225:
 624 0018 00000000 		.space	4
 625              		.align	2
 626              	derivative.7224:
ARM GAS  C:\Users\Sam\AppData\Local\Temp\ccKWGsAP.s 			page 16


 627 001c 00000000 		.space	4
 628              		.text
 629              	.Letext0:
 630              		.file 2 "c:\\program files (x86)\\cypress\\psoc creator\\3.1\\psoc creator\\import\\gnu_cs\\arm\\4
 631              		.file 3 "c:\\program files (x86)\\cypress\\psoc creator\\3.1\\psoc creator\\import\\gnu_cs\\arm\\4
 632              		.file 4 ".\\Generated_Source\\PSoC4/cytypes.h"
 633              		.file 5 ".\\hmc5883l.h"